

Microchip Technology PIC18 LITE Macro Assembler V1.35 build -356382666 
                                                                                               Sat Oct 24 16:44:03 2015

Microchip Technology Omniscient Code Generator v1.35 (Free mode) build 201507080246
     1                           	processor	18F24K22
     2                           	fnconf	rparam,??,?,0
     3                           	opt	pw 120
     4                           	opt	lm
     5                           	psect	idataBANK0,global,class=CODE,delta=1
     6                           	psect	nvCOMRAM,global,class=COMRAM,space=1,delta=1
     7                           	psect	nvBANK0,global,class=BANK0,space=1,delta=1
     8                           	psect	cinit,global,reloc=2,class=CODE,delta=1
     9                           	psect	bssCOMRAM,global,class=COMRAM,space=1,delta=1
    10                           	psect	bssBANK0,global,class=BANK0,space=1,delta=1
    11                           	psect	dataBANK0,global,class=BANK0,space=1,delta=1
    12                           	psect	cstackBANK0,global,class=BANK0,space=1,delta=1
    13                           	psect	cstackCOMRAM,global,class=COMRAM,space=1,delta=1
    14                           	psect	text0,global,reloc=2,class=CODE,delta=1
    15                           	psect	text1,global,reloc=2,class=CODE,delta=1
    16                           	psect	text2,global,reloc=2,class=CODE,delta=1
    17                           	psect	text3,global,reloc=2,class=CODE,delta=1
    18                           	psect	text4,global,reloc=2,class=CODE,delta=1
    19                           	psect	text5,global,reloc=2,class=CODE,delta=1
    20                           	psect	text6,global,reloc=2,class=CODE,delta=1
    21                           	psect	text7,global,reloc=2,class=CODE,delta=1
    22                           	psect	text8,global,reloc=2,class=CODE,delta=1
    23                           	psect	text9,global,reloc=2,class=CODE,delta=1
    24                           	psect	text10,global,reloc=2,class=CODE,delta=1
    25                           	psect	text11,global,reloc=2,class=CODE,delta=1
    26                           	psect	text12,global,reloc=2,class=CODE,delta=1
    27                           	psect	text13,global,reloc=2,class=CODE,delta=1
    28                           	psect	text14,global,reloc=2,class=CODE,delta=1
    29                           	psect	text15,global,reloc=2,class=CODE,delta=1
    30                           	psect	text16,global,reloc=2,class=CODE,delta=1
    31                           	psect	text17,global,reloc=2,class=CODE,delta=1
    32                           	psect	text18,global,reloc=2,class=CODE,delta=1
    33                           	psect	text19,global,reloc=2,class=CODE,delta=1
    34                           	psect	text20,global,reloc=2,class=CODE,delta=1
    35                           	psect	text21,global,reloc=2,class=CODE,delta=1
    36                           	psect	text22,global,reloc=2,class=CODE,delta=1
    37                           	psect	text23,global,reloc=2,class=CODE,delta=1
    38                           	psect	text24,global,reloc=2,class=CODE,delta=1
    39                           	psect	intcodelo,global,reloc=2,class=CODE,delta=1
    40                           	psect	intcode,global,reloc=2,class=CODE,delta=1
    41                           	psect	intcode_body,global,reloc=2,class=CODE,delta=1
    42                           	psect	text28,global,reloc=2,class=CODE,delta=1
    43                           	psect	intsave_regs,global,class=BIGRAM,space=1,delta=1
    44                           	psect	rparam,global,class=COMRAM,space=1,delta=1
    45                           	psect	temp,global,ovrld,common,class=COMRAM,space=1,delta=1
    46  0000                     
    47                           	psect	idataBANK0
    48  000CC0                     __pidataBANK0:
    49                           	opt stack 0
    50                           
    51                           ;initializer for _vel_DX
    52  000CC0  02C8               	dw	712
    53                           
    54                           ;initializer for _vel_SX
    55  000CC2  02BC               	dw	700
    56                           
    57                           	psect	nvCOMRAM
    58  00003B                     __pnvCOMRAM:
    59                           	opt stack 0
    60  00003B                     _timer1ReloadVal:
    61                           	opt stack 0
    62  00003B                     	ds	2
    63                           
    64                           	psect	nvBANK0
    65  00008C                     __pnvBANK0:
    66                           	opt stack 0
    67  00008C                     _V_pulsantiera:
    68                           	opt stack 0
    69  00008C                     	ds	2
    70  0000                     _ANSELA	set	3896
    71  0000                     _ANSELB	set	3897
    72  0000                     _ANSELC	set	3898
    73  0000                     _CCP4CON	set	3927
    74  0000                     _CCPR4H	set	3929
    75  0000                     _CCPR4L	set	3928
    76  0000                     _CCPTMRS0bits	set	3913
    77  0000                     _CCPTMRS1bits	set	3912
    78  0000                     _TMR1	set	4046
    79  0000                     _ADCON0	set	4034
    80  0000                     _ADCON0bits	set	4034
    81  0000                     _ADCON1	set	4033
    82  0000                     _ADCON2	set	4032
    83  0000                     _ADRESH	set	4036
    84  0000                     _ADRESL	set	4035
    85  0000                     _CCP1CON	set	4029
    86  0000                     _CCP2CON	set	3942
    87  0000                     _CCPR1H	set	4031
    88  0000                     _CCPR1L	set	4030
    89  0000                     _CCPR2H	set	3944
    90  0000                     _CCPR2L	set	3943
    91  0000                     _ECCP1AS	set	4022
    92  0000                     _ECCP2AS	set	3940
    93  0000                     _INTCON2bits	set	4081
    94  0000                     _INTCONbits	set	4082
    95  0000                     _LATA	set	3977
    96  0000                     _LATB	set	3978
    97  0000                     _LATC	set	3979
    98  0000                     _OSCCON	set	4051
    99  0000                     _OSCCON2	set	4050
   100  0000                     _OSCTUNE	set	3995
   101  0000                     _PIR1bits	set	3998
   102  0000                     _PIR4bits	set	3963
   103  0000                     _PORTBbits	set	3969
   104  0000                     _PR2	set	4027
   105  0000                     _PSTR1CON	set	4025
   106  0000                     _PSTR2CON	set	3939
   107  0000                     _PWM1CON	set	4023
   108  0000                     _PWM2CON	set	3941
   109  0000                     _T1CON	set	4045
   110  0000                     _T1CONbits	set	4045
   111  0000                     _T1GCON	set	4044
   112  0000                     _T1GCONbits	set	4044
   113  0000                     _T2CON	set	4026
   114  0000                     _T2CONbits	set	4026
   115  0000                     _TMR1H	set	4047
   116  0000                     _TMR1L	set	4046
   117  0000                     _TMR2	set	4028
   118  0000                     _TRISA	set	3986
   119  0000                     _TRISAbits	set	3986
   120  0000                     _TRISB	set	3987
   121  0000                     _TRISBbits	set	3987
   122  0000                     _TRISC	set	3988
   123  0000                     _WPUB	set	3937
   124  0000                     _INT1IE	set	32643
   125  0000                     _INT1IF	set	32640
   126  0000                     _INT1IP	set	32646
   127  0000                     _INTEDG1	set	32653
   128  0000                     _LATA0	set	31816
   129  0000                     _LATA1	set	31817
   130  0000                     _LATA2	set	31818
   131  0000                     _LATA3	set	31819
   132  0000                     _LATA4	set	31820
   133  0000                     _LATC0	set	31832
   134  0000                     _LATC3	set	31835
   135  0000                     _LATC4	set	31836
   136  0000                     _LATC5	set	31837
   137  0000                     _LATC6	set	31838
   138  0000                     _LATC7	set	31839
   139                           
   140                           ; #config settings
   141  0000                     
   142                           	psect	cinit
   143  000A54                     __pcinit:
   144                           	opt stack 0
   145  000A54                     start_initialization:
   146                           	opt stack 0
   147  000A54                     __initialization:
   148                           	opt stack 0
   149                           
   150                           ; Clear objects allocated to BANK0 (14 bytes)
   151  000A54  EE00  F07A         	lfsr	0,__pbssBANK0
   152  000A58  0E0E               	movlw	14
   153  000A5A                     clear_0:
   154  000A5A  6AEE               	clrf	postinc0,c
   155  000A5C  06E8               	decf	wreg,f,c
   156  000A5E  E1FD               	bnz	clear_0
   157                           
   158                           ; Clear objects allocated to COMRAM (8 bytes)
   159  000A60  EE00  F033         	lfsr	0,__pbssCOMRAM
   160  000A64  0E08               	movlw	8
   161  000A66                     clear_1:
   162  000A66  6AEE               	clrf	postinc0,c
   163  000A68  06E8               	decf	wreg,f,c
   164  000A6A  E1FD               	bnz	clear_1
   165                           
   166                           ; Initialize objects allocated to BANK0 (4 bytes)
   167                           ; load TBLPTR registers with __pidataBANK0
   168  000A6C  0EC0               	movlw	low __pidataBANK0
   169  000A6E  6EF6               	movwf	tblptrl,c
   170  000A70  0E0C               	movlw	high __pidataBANK0
   171  000A72  6EF7               	movwf	tblptrh,c
   172  000A74  0E00               	movlw	low (__pidataBANK0 shr (0+16))
   173  000A76  6EF8               	movwf	tblptru,c
   174  000A78  EE00  F088         	lfsr	0,__pdataBANK0
   175  000A7C  EE10 F004          	lfsr	1,4
   176  000A80                     copy_data0:
   177  000A80  0009               	tblrd		*+
   178  000A82  CFF5 FFEE          	movff	tablat,postinc0
   179  000A86  50E5               	movf	postdec1,w,c
   180  000A88  50E1               	movf	fsr1l,w,c
   181  000A8A  E1FA               	bnz	copy_data0
   182  000A8C                     end_of_initialization:
   183                           	opt stack 0
   184  000A8C                     __end_of__initialization:
   185                           	opt stack 0
   186  000A8C  903D               	bcf	int$flags,0,c	;clear compiler interrupt flag (level 1)
   187  000A8E  923D               	bcf	int$flags,1,c	;clear compiler interrupt flag (level 2)
   188  000A90  0E00               	movlw	low (__Lmediumconst shr (0+16))
   189  000A92  6EF8               	movwf	tblptru,c
   190  000A94  0100               	movlb	0
   191  000A96  EF55  F000         	goto	_main	;jump to C main() function
   192                           tblptru	equ	0xFF8
   193                           tblptrh	equ	0xFF7
   194                           tblptrl	equ	0xFF6
   195                           tablat	equ	0xFF5
   196                           postinc0	equ	0xFEE
   197                           wreg	equ	0xFE8
   198                           postdec1	equ	0xFE5
   199                           fsr1l	equ	0xFE1
   200                           
   201                           	psect	bssCOMRAM
   202  000033                     __pbssCOMRAM:
   203                           	opt stack 0
   204  000033                     _V_batt:
   205                           	opt stack 0
   206  000033                     	ds	2
   207  000035                     _V_frontale:
   208                           	opt stack 0
   209  000035                     	ds	2
   210  000037                     _V_posteriore:
   211                           	opt stack 0
   212  000037                     	ds	2
   213  000039                     _i:
   214                           	opt stack 0
   215  000039                     	ds	2
   216                           tblptru	equ	0xFF8
   217                           tblptrh	equ	0xFF7
   218                           tblptrl	equ	0xFF6
   219                           tablat	equ	0xFF5
   220                           postinc0	equ	0xFEE
   221                           wreg	equ	0xFE8
   222                           postdec1	equ	0xFE5
   223                           fsr1l	equ	0xFE1
   224                           
   225                           	psect	bssBANK0
   226  00007A                     __pbssBANK0:
   227                           	opt stack 0
   228  00007A                     _T:
   229                           	opt stack 0
   230  00007A                     	ds	2
   231  00007C                     _bluPC:
   232                           	opt stack 0
   233  00007C                     	ds	2
   234  00007E                     _deltaV:
   235                           	opt stack 0
   236  00007E                     	ds	2
   237  000080                     _msec_10:
   238                           	opt stack 0
   239  000080                     	ds	2
   240  000082                     _rossoPC:
   241                           	opt stack 0
   242  000082                     	ds	2
   243  000084                     _verdePC:
   244                           	opt stack 0
   245  000084                     	ds	2
   246  000086                     _colore:
   247                           	opt stack 0
   248  000086                     	ds	1
   249  000087                     _goal_color:
   250                           	opt stack 0
   251  000087                     	ds	1
   252                           tblptru	equ	0xFF8
   253                           tblptrh	equ	0xFF7
   254                           tblptrl	equ	0xFF6
   255                           tablat	equ	0xFF5
   256                           postinc0	equ	0xFEE
   257                           wreg	equ	0xFE8
   258                           postdec1	equ	0xFE5
   259                           fsr1l	equ	0xFE1
   260                           
   261                           	psect	dataBANK0
   262  000088                     __pdataBANK0:
   263                           	opt stack 0
   264  000088                     _vel_DX:
   265                           	opt stack 0
   266  000088                     	ds	2
   267  00008A                     _vel_SX:
   268                           	opt stack 0
   269  00008A                     	ds	2
   270                           tblptru	equ	0xFF8
   271                           tblptrh	equ	0xFF7
   272                           tblptrl	equ	0xFF6
   273                           tablat	equ	0xFF5
   274                           postinc0	equ	0xFEE
   275                           wreg	equ	0xFE8
   276                           postdec1	equ	0xFE5
   277                           fsr1l	equ	0xFE1
   278                           
   279                           	psect	cstackBANK0
   280  000060                     __pcstackBANK0:
   281                           	opt stack 0
   282  000060                     ??_sollevaCarrello:
   283  000060                     ??_abbassaCarrello:
   284  000060                     ?_ADC_GetConversion:
   285                           	opt stack 0
   286  000060                     EPWM2_LoadDutyValue@dutyValue:
   287                           	opt stack 0
   288  000060                     EPWM1_LoadDutyValue@dutyValue:
   289                           	opt stack 0
   290                           
   291                           ; 2 bytes @ 0x0
   292  000060                     	ds	1
   293  000061                     sollevaCarrello@p:
   294                           	opt stack 0
   295  000061                     abbassaCarrello@p:
   296                           	opt stack 0
   297                           
   298                           ; 1 bytes @ 0x1
   299  000061                     	ds	1
   300  000062                     ??_EPWM2_LoadDutyValue:
   301  000062                     ??_EPWM1_LoadDutyValue:
   302  000062                     ??_ADC_GetConversion:
   303  000062                     abbassaCarrello@p_1028:
   304                           	opt stack 0
   305                           
   306                           ; 1 bytes @ 0x2
   307  000062                     	ds	2
   308  000064                     ??_stopM:
   309  000064                     ADC_GetConversion@channel:
   310                           	opt stack 0
   311                           
   312                           ; 1 bytes @ 0x4
   313  000064                     	ds	1
   314  000065                     ??_seguiLinea:
   315  000065                     ?___lwdiv:
   316                           	opt stack 0
   317  000065                     ___lwdiv@dividend:
   318                           	opt stack 0
   319                           
   320                           ; 2 bytes @ 0x5
   321  000065                     	ds	1
   322  000066                     seguiLinea@T:
   323                           	opt stack 0
   324                           
   325                           ; 1 bytes @ 0x6
   326  000066                     	ds	1
   327  000067                     ___lwdiv@divisor:
   328                           	opt stack 0
   329                           
   330                           ; 2 bytes @ 0x7
   331  000067                     	ds	2
   332  000069                     ___lwdiv@quotient:
   333                           	opt stack 0
   334                           
   335                           ; 2 bytes @ 0x9
   336  000069                     	ds	2
   337  00006B                     ___lwdiv@counter:
   338                           	opt stack 0
   339                           
   340                           ; 1 bytes @ 0xB
   341  00006B                     	ds	1
   342  00006C                     delay_mS@m_sec:
   343                           	opt stack 0
   344                           
   345                           ; 2 bytes @ 0xC
   346  00006C                     	ds	2
   347  00006E                     ??_delay_mS:
   348                           
   349                           ; 0 bytes @ 0xE
   350  00006E                     	ds	1
   351  00006F                     ??_taratura:
   352  00006F                     ??_controllaColore:
   353                           
   354                           ; 0 bytes @ 0xF
   355  00006F                     	ds	2
   356  000071                     taratura@v_sensori:
   357                           	opt stack 0
   358                           
   359                           ; 2 bytes @ 0x11
   360  000071                     	ds	2
   361  000073                     ??_main:
   362                           
   363                           ; 0 bytes @ 0x13
   364  000073                     	ds	1
   365  000074                     main@numLinee:
   366                           	opt stack 0
   367                           
   368                           ; 1 bytes @ 0x14
   369  000074                     	ds	1
   370  000075                     main@t:
   371                           	opt stack 0
   372                           
   373                           ; 1 bytes @ 0x15
   374  000075                     	ds	1
   375  000076                     main@t_1273:
   376                           	opt stack 0
   377                           
   378                           ; 1 bytes @ 0x16
   379  000076                     	ds	1
   380  000077                     main@T:
   381                           	opt stack 0
   382                           
   383                           ; 2 bytes @ 0x17
   384  000077                     	ds	2
   385  000079                     main@T_1274:
   386                           	opt stack 0
   387                           
   388                           ; 1 bytes @ 0x19
   389  000079                     	ds	1
   390                           tblptru	equ	0xFF8
   391                           tblptrh	equ	0xFF7
   392                           tblptrl	equ	0xFF6
   393                           tablat	equ	0xFF5
   394                           postinc0	equ	0xFEE
   395                           wreg	equ	0xFE8
   396                           postdec1	equ	0xFE5
   397                           fsr1l	equ	0xFE1
   398                           
   399                           	psect	cstackCOMRAM
   400  000001                     __pcstackCOMRAM:
   401                           	opt stack 0
   402  000001                     ??_low_isr:
   403  000001                     
   404                           ; 0 bytes @ 0x0
   405  000001                     	ds	17
   406  000012                     ??_high_isr:
   407                           
   408                           ; 0 bytes @ 0x11
   409  000012                     	ds	14
   410  000020                     CCP4_SetCompareCount@compareCount:
   411                           	opt stack 0
   412                           
   413                           ; 2 bytes @ 0x1F
   414  000020                     	ds	2
   415  000022                     CCP4_SetCompareCount@module:
   416                           	opt stack 0
   417                           
   418                           ; 2 bytes @ 0x21
   419  000022                     	ds	2
   420  000024                     ??_stop:
   421                           
   422                           ; 0 bytes @ 0x23
   423  000024                     	ds	15
   424                           tblptru	equ	0xFF8
   425                           tblptrh	equ	0xFF7
   426                           tblptrl	equ	0xFF6
   427                           tablat	equ	0xFF5
   428                           postinc0	equ	0xFEE
   429                           wreg	equ	0xFE8
   430                           postdec1	equ	0xFE5
   431                           fsr1l	equ	0xFE1
   432                           
   433 ;;
   434 ;;Main: autosize = 0, tempsize = 1, incstack = 0, save=0
   435 ;;
   436 ;; *************** function _main *****************
   437 ;; Defined at:
   438 ;;		line 37 in file "main.c"
   439 ;; Parameters:    Size  Location     Type
   440 ;;		None
   441 ;; Auto vars:     Size  Location     Type
   442 ;;  t               1   22[BANK0 ] unsigned char 
   443 ;;  t               1   21[BANK0 ] unsigned char 
   444 ;;  T               1   25[BANK0 ] unsigned char 
   445 ;;  T               2   23[BANK0 ] unsigned int 
   446 ;;  numLinee        1   20[BANK0 ] unsigned char 
   447 ;; Return value:  Size  Location     Type
   448 ;;		None               void
   449 ;; Registers used:
   450 ;;		wreg, status,2, status,0, cstack
   451 ;; Tracked objects:
   452 ;;		On entry : 0/0
   453 ;;		On exit  : 0/0
   454 ;;		Unchanged: 0/0
   455 ;; Data sizes:     COMRAM   BANK0   BANK1   BANK2
   456 ;;      Params:         0       0       0       0
   457 ;;      Locals:         0       6       0       0
   458 ;;      Temps:          0       1       0       0
   459 ;;      Totals:         0       7       0       0
   460 ;;Total ram usage:        7 bytes
   461 ;; Hardware stack levels required when called:    6
   462 ;; This function calls:
   463 ;;		_ADC_GetConversion
   464 ;;		_EPWM1_LoadDutyValue
   465 ;;		_EPWM2_LoadDutyValue
   466 ;;		_InitApp
   467 ;;		_OSCILLATOR_Initialize
   468 ;;		_SYSTEM_Initialize
   469 ;;		_abbassaCarrello
   470 ;;		_checkBatt
   471 ;;		_controllaColore
   472 ;;		_delay_mS
   473 ;;		_seguiLinea
   474 ;;		_sollevaCarrello
   475 ;;		_stopM
   476 ;;		_taratura
   477 ;; This function is called by:
   478 ;;		Startup code after reset
   479 ;; This function uses a non-reentrant model
   480 ;;
   481                           
   482                           	psect	text0
   483  0000AA                     __ptext0:
   484                           	opt stack 0
   485  0000AA                     _main:
   486                           	opt stack 25
   487                           
   488                           ;main.c: 39: OSCILLATOR_Initialize();
   489                           
   490                           ;incstack = 0
   491  0000AA  EC59  F006         	call	_OSCILLATOR_Initialize	;wreg free
   492                           
   493                           ;main.c: 40: SYSTEM_Initialize();
   494  0000AE  ECDF  F005         	call	_SYSTEM_Initialize	;wreg free
   495                           
   496                           ;main.c: 41: InitApp();
   497  0000B2  EC20  F006         	call	_InitApp	;wreg free
   498                           
   499                           ;main.c: 44: LATC0 = 0;
   500  0000B6  908B               	bcf	3979,0,c	;volatile
   501                           
   502                           ;main.c: 45: LATC7 = 0;
   503  0000B8  9E8B               	bcf	3979,7,c	;volatile
   504                           
   505                           ;main.c: 46: EPWM1_LoadDutyValue(511);
   506  0000BA  0E01               	movlw	1
   507  0000BC  0100               	movlb	0	; () banked
   508  0000BE  6F61               	movwf	(EPWM1_LoadDutyValue@dutyValue+1)& (0+255),b
   509  0000C0  6960               	setf	EPWM1_LoadDutyValue@dutyValue& (0+255),b
   510  0000C2  ECA9  F005         	call	_EPWM1_LoadDutyValue	;wreg free
   511                           
   512                           ;main.c: 47: EPWM2_LoadDutyValue(511);
   513  0000C6  0E01               	movlw	1
   514  0000C8  0100               	movlb	0	; () banked
   515  0000CA  6F61               	movwf	(EPWM2_LoadDutyValue@dutyValue+1)& (0+255),b
   516  0000CC  6960               	setf	EPWM2_LoadDutyValue@dutyValue& (0+255),b
   517  0000CE  EC8B  F005         	call	_EPWM2_LoadDutyValue	;wreg free
   518                           
   519                           ;main.c: 49: T1CONbits.TMR1ON = 0;
   520  0000D2  90CD               	bcf	4045,0,c	;volatile
   521                           
   522                           ;main.c: 50: LATA4= 1;
   523  0000D4  8889               	bsf	3977,4,c	;volatile
   524                           
   525                           ;main.c: 52: TRISBbits.RB1 = 1;
   526  0000D6  8293               	bsf	3987,1,c	;volatile
   527                           
   528                           ;main.c: 53: INTEDG1 = 0;
   529  0000D8  9AF1               	bcf	intcon2,5,c	;volatile
   530                           
   531                           ;main.c: 54: INT1IP = 1;
   532  0000DA  8CF0               	bsf	intcon3,6,c	;volatile
   533                           
   534                           ;main.c: 55: INT1IE = 1;
   535  0000DC  86F0               	bsf	intcon3,3,c	;volatile
   536                           
   537                           ;main.c: 56: (INTCONbits.GIE = 0);
   538  0000DE  9EF2               	bcf	intcon,7,c	;volatile
   539                           
   540                           ;main.c: 61: LATC4=0;
   541  0000E0  988B               	bcf	3979,4,c	;volatile
   542                           
   543                           ;main.c: 62: LATC5=0;
   544  0000E2  9A8B               	bcf	3979,5,c	;volatile
   545                           
   546                           ;main.c: 63: LATC3=0;
   547  0000E4  968B               	bcf	3979,3,c	;volatile
   548                           
   549                           ;main.c: 64: LATC6=0;
   550  0000E6  9C8B               	bcf	3979,6,c	;volatile
   551                           
   552                           ;main.c: 65: uint8_t numLinee = 0;
   553  0000E8  0E00               	movlw	0
   554  0000EA  0100               	movlb	0	; () banked
   555  0000EC  6F74               	movwf	main@numLinee& (0+255),b
   556  0000EE                     l1968:
   557                           
   558                           ;main.c: 72: V_pulsantiera = ADC_GetConversion(channel_AN9);
   559  0000EE  0E09               	movlw	9
   560  0000F0  EC4D  F005         	call	_ADC_GetConversion
   561  0000F4  C060  F08C         	movff	?_ADC_GetConversion,_V_pulsantiera
   562  0000F8  C061  F08D         	movff	?_ADC_GetConversion+1,_V_pulsantiera+1
   563                           
   564                           ;main.c: 77: if(PORTBbits.RB1 == 0 && 532-40 <= V_pulsantiera && V_pulsantiera <= 532+40
      +                          ){
   565  0000FC  B281               	btfsc	3969,1,c	;volatile
   566  0000FE  D013               	goto	l1978
   567  000100  0EEC               	movlw	236
   568  000102  0100               	movlb	0	; () banked
   569  000104  5D8C               	subwf	_V_pulsantiera& (0+255),w,b
   570  000106  0E01               	movlw	1
   571  000108  0100               	movlb	0	; () banked
   572  00010A  598D               	subwfb	(_V_pulsantiera+1)& (0+255),w,b
   573  00010C  A0D8               	btfss	status,0,c
   574  00010E  D00B               	goto	l1978
   575                           
   576                           ; BSR set to: 0
   577  000110  0E3D               	movlw	61
   578  000112  0100               	movlb	0	; () banked
   579  000114  5D8C               	subwf	_V_pulsantiera& (0+255),w,b
   580  000116  0E02               	movlw	2
   581  000118  0100               	movlb	0	; () banked
   582  00011A  598D               	subwfb	(_V_pulsantiera+1)& (0+255),w,b
   583  00011C  B0D8               	btfsc	status,0,c
   584  00011E  D003               	goto	l1978
   585                           
   586                           ; BSR set to: 0
   587                           ;main.c: 78: taratura();
   588  000120  EC0C  F004         	call	_taratura	;wreg free
   589                           
   590                           ;main.c: 79: }else if(V_pulsantiera <1000){
   591  000124  D7E4               	goto	l1968
   592  000126                     l1978:
   593  000126  0EE8               	movlw	232
   594  000128  0100               	movlb	0	; () banked
   595  00012A  5D8C               	subwf	_V_pulsantiera& (0+255),w,b
   596  00012C  0E03               	movlw	3
   597  00012E  0100               	movlb	0	; () banked
   598  000130  598D               	subwfb	(_V_pulsantiera+1)& (0+255),w,b
   599  000132  B0D8               	btfsc	status,0,c
   600  000134  D7DC               	goto	l1968
   601                           
   602                           ; BSR set to: 0
   603                           ;main.c: 80: if(921-40 <= V_pulsantiera && V_pulsantiera <= 921+40){
   604  000136  0E71               	movlw	113
   605  000138  0100               	movlb	0	; () banked
   606  00013A  5D8C               	subwf	_V_pulsantiera& (0+255),w,b
   607  00013C  0E03               	movlw	3
   608  00013E  0100               	movlb	0	; () banked
   609  000140  598D               	subwfb	(_V_pulsantiera+1)& (0+255),w,b
   610  000142  A0D8               	btfss	status,0,c
   611  000144  D00A               	goto	l1986
   612                           
   613                           ; BSR set to: 0
   614  000146  0EC2               	movlw	194
   615  000148  0100               	movlb	0	; () banked
   616  00014A  5D8C               	subwf	_V_pulsantiera& (0+255),w,b
   617  00014C  0E03               	movlw	3
   618  00014E  0100               	movlb	0	; () banked
   619  000150  598D               	subwfb	(_V_pulsantiera+1)& (0+255),w,b
   620  000152  B0D8               	btfsc	status,0,c
   621  000154  D002               	goto	l1986
   622                           
   623                           ; BSR set to: 0
   624                           ;main.c: 81: goal_color = ROSSO;
   625  000156  0E00               	movlw	0
   626  000158  D023               	goto	L2
   627  00015A                     l1986:
   628                           
   629                           ; BSR set to: 0
   630  00015A  0EAC               	movlw	172
   631  00015C  0100               	movlb	0	; () banked
   632  00015E  5D8C               	subwf	_V_pulsantiera& (0+255),w,b
   633  000160  0E02               	movlw	2
   634  000162  0100               	movlb	0	; () banked
   635  000164  598D               	subwfb	(_V_pulsantiera+1)& (0+255),w,b
   636  000166  A0D8               	btfss	status,0,c
   637  000168  D00A               	goto	l1992
   638                           
   639                           ; BSR set to: 0
   640  00016A  0EFD               	movlw	253
   641  00016C  0100               	movlb	0	; () banked
   642  00016E  5D8C               	subwf	_V_pulsantiera& (0+255),w,b
   643  000170  0E02               	movlw	2
   644  000172  0100               	movlb	0	; () banked
   645  000174  598D               	subwfb	(_V_pulsantiera+1)& (0+255),w,b
   646  000176  B0D8               	btfsc	status,0,c
   647  000178  D002               	goto	l1992
   648                           
   649                           ; BSR set to: 0
   650                           ;main.c: 83: goal_color = VERDE;
   651  00017A  0E02               	movlw	2
   652  00017C  D011               	goto	L2
   653  00017E                     l1992:
   654                           
   655                           ; BSR set to: 0
   656  00017E  0EEC               	movlw	236
   657  000180  0100               	movlb	0	; () banked
   658  000182  5D8C               	subwf	_V_pulsantiera& (0+255),w,b
   659  000184  0E01               	movlw	1
   660  000186  0100               	movlb	0	; () banked
   661  000188  598D               	subwfb	(_V_pulsantiera+1)& (0+255),w,b
   662  00018A  A0D8               	btfss	status,0,c
   663  00018C  D00B               	goto	l470
   664                           
   665                           ; BSR set to: 0
   666  00018E  0E3D               	movlw	61
   667  000190  0100               	movlb	0	; () banked
   668  000192  5D8C               	subwf	_V_pulsantiera& (0+255),w,b
   669  000194  0E02               	movlw	2
   670  000196  0100               	movlb	0	; () banked
   671  000198  598D               	subwfb	(_V_pulsantiera+1)& (0+255),w,b
   672  00019A  B0D8               	btfsc	status,0,c
   673  00019C  D003               	goto	l470
   674                           
   675                           ; BSR set to: 0
   676                           ;main.c: 85: goal_color = BLU;
   677  00019E  0E01               	movlw	1
   678  0001A0                     L2:
   679  0001A0  0100               	movlb	0	; () banked
   680  0001A2  6F87               	movwf	_goal_color& (0+255),b
   681  0001A4                     l470:
   682                           
   683                           ; BSR set to: 0
   684                           ;main.c: 86: }
   685                           ;main.c: 90: for (uint16_t T=0; T <= 50; T=T+1){
   686  0001A4  0E00               	movlw	0
   687  0001A6  0100               	movlb	0	; () banked
   688  0001A8  6F78               	movwf	(main@T+1)& (0+255),b
   689  0001AA  0E00               	movlw	0
   690  0001AC  6F77               	movwf	main@T& (0+255),b
   691  0001AE                     l1998:
   692                           
   693                           ; BSR set to: 0
   694  0001AE  0100               	movlb	0	; () banked
   695  0001B0  5178               	movf	(main@T+1)& (0+255),w,b
   696  0001B2  E118               	bnz	l2008
   697  0001B4  0E33               	movlw	51
   698  0001B6  0100               	movlb	0	; () banked
   699  0001B8  5D77               	subwf	main@T& (0+255),w,b
   700  0001BA  B0D8               	btfsc	status,0,c
   701  0001BC  D013               	goto	l2008
   702                           
   703                           ; BSR set to: 0
   704                           ;main.c: 91: _delay((unsigned long)((10)*(64000000/4000.0)));
   705                           
   706                           ; BSR set to: 0
   707                           
   708                           ; BSR set to: 0
   709  0001BE  0ED0               	movlw	208
   710  0001C0  0100               	movlb	0	; () banked
   711  0001C2  6F73               	movwf	??_main& (0+255),b
   712  0001C4  0ECA               	movlw	202
   713  0001C6                     u1017:
   714  0001C6  2EE8               	decfsz	wreg,f,c
   715  0001C8  D7FE               	goto	u1017
   716  0001CA  2F73               	decfsz	??_main& (0+255),f,b
   717  0001CC  D7FC               	goto	u1017
   718  0001CE  0E01               	movlw	1
   719  0001D0  0100               	movlb	0	; () banked
   720  0001D2  2577               	addwf	main@T& (0+255),w,b
   721  0001D4  0100               	movlb	0	; () banked
   722  0001D6  6F77               	movwf	main@T& (0+255),b
   723  0001D8  0E00               	movlw	0
   724  0001DA  0100               	movlb	0	; () banked
   725  0001DC  2178               	addwfc	(main@T+1)& (0+255),w,b
   726  0001DE  0100               	movlb	0	; () banked
   727  0001E0  6F78               	movwf	(main@T+1)& (0+255),b
   728  0001E2  D7E5               	goto	l1998
   729  0001E4                     l2008:
   730                           
   731                           ; BSR set to: 0
   732                           ;main.c: 92: }
   733                           ;main.c: 94: EPWM1_LoadDutyValue(514);
   734  0001E4  0E02               	movlw	2
   735  0001E6  0100               	movlb	0	; () banked
   736  0001E8  6F61               	movwf	(EPWM1_LoadDutyValue@dutyValue+1)& (0+255),b
   737  0001EA  0E02               	movlw	2
   738  0001EC  6F60               	movwf	EPWM1_LoadDutyValue@dutyValue& (0+255),b
   739  0001EE  ECA9  F005         	call	_EPWM1_LoadDutyValue	;wreg free
   740                           
   741                           ;main.c: 95: EPWM2_LoadDutyValue(514);
   742  0001F2  0E02               	movlw	2
   743  0001F4  0100               	movlb	0	; () banked
   744  0001F6  6F61               	movwf	(EPWM2_LoadDutyValue@dutyValue+1)& (0+255),b
   745  0001F8  0E02               	movlw	2
   746  0001FA  6F60               	movwf	EPWM2_LoadDutyValue@dutyValue& (0+255),b
   747  0001FC  EC8B  F005         	call	_EPWM2_LoadDutyValue	;wreg free
   748                           
   749                           ;main.c: 96: LATC0 = 1;
   750  000200  808B               	bsf	3979,0,c	;volatile
   751                           
   752                           ;main.c: 97: EPWM1_LoadDutyValue(700);
   753  000202  0E02               	movlw	2
   754  000204  0100               	movlb	0	; () banked
   755  000206  6F61               	movwf	(EPWM1_LoadDutyValue@dutyValue+1)& (0+255),b
   756  000208  0EBC               	movlw	188
   757  00020A  6F60               	movwf	EPWM1_LoadDutyValue@dutyValue& (0+255),b
   758  00020C  ECA9  F005         	call	_EPWM1_LoadDutyValue	;wreg free
   759                           
   760                           ;main.c: 98: EPWM2_LoadDutyValue(712);
   761  000210  0E02               	movlw	2
   762  000212  0100               	movlb	0	; () banked
   763  000214  6F61               	movwf	(EPWM2_LoadDutyValue@dutyValue+1)& (0+255),b
   764  000216  0EC8               	movlw	200
   765  000218  6F60               	movwf	EPWM2_LoadDutyValue@dutyValue& (0+255),b
   766  00021A  EC8B  F005         	call	_EPWM2_LoadDutyValue	;wreg free
   767                           
   768                           ;main.c: 99: seguiLinea();
   769  00021E  EC49  F002         	call	_seguiLinea	;wreg free
   770                           
   771                           ;main.c: 103: stopM();
   772  000222  EC6D  F005         	call	_stopM	;wreg free
   773                           
   774                           ;main.c: 105: controllaColore();
   775  000226  ECD6  F002         	call	_controllaColore	;wreg free
   776                           
   777                           ;main.c: 107: if(colore != goal_color){
   778  00022A  0100               	movlb	0	; () banked
   779  00022C  5187               	movf	_goal_color& (0+255),w,b
   780  00022E  0100               	movlb	0	; () banked
   781  000230  1986               	xorwf	_colore& (0+255),w,b
   782  000232  B4D8               	btfsc	status,2,c
   783  000234  D058               	goto	l2052
   784                           
   785                           ; BSR set to: 0
   786                           ;main.c: 109: LATC0 = 1;
   787  000236  808B               	bsf	3979,0,c	;volatile
   788                           
   789                           ; BSR set to: 0
   790                           ;main.c: 110: EPWM1_LoadDutyValue(700);
   791  000238  0E02               	movlw	2
   792  00023A  0100               	movlb	0	; () banked
   793  00023C  6F61               	movwf	(EPWM1_LoadDutyValue@dutyValue+1)& (0+255),b
   794  00023E  0EBC               	movlw	188
   795  000240  6F60               	movwf	EPWM1_LoadDutyValue@dutyValue& (0+255),b
   796  000242  ECA9  F005         	call	_EPWM1_LoadDutyValue	;wreg free
   797                           
   798                           ;main.c: 111: EPWM2_LoadDutyValue(712);
   799  000246  0E02               	movlw	2
   800  000248  0100               	movlb	0	; () banked
   801  00024A  6F61               	movwf	(EPWM2_LoadDutyValue@dutyValue+1)& (0+255),b
   802  00024C  0EC8               	movlw	200
   803  00024E  6F60               	movwf	EPWM2_LoadDutyValue@dutyValue& (0+255),b
   804  000250  EC8B  F005         	call	_EPWM2_LoadDutyValue	;wreg free
   805                           
   806                           ;main.c: 115: for(uint8_t t = 0; t<=100; t++){
   807  000254  0E00               	movlw	0
   808  000256  0100               	movlb	0	; () banked
   809  000258  6F75               	movwf	main@t& (0+255),b
   810  00025A                     l2020:
   811                           
   812                           ; BSR set to: 0
   813  00025A  0E64               	movlw	100
   814  00025C  0100               	movlb	0	; () banked
   815  00025E  6575               	cpfsgt	main@t& (0+255),b
   816  000260  D001               	goto	l2024
   817  000262  D00B               	goto	l2028
   818  000264                     l2024:
   819                           
   820                           ; BSR set to: 0
   821                           ;main.c: 116: _delay((unsigned long)((10)*(64000000/4000.0)));
   822  000264  0ED0               	movlw	208
   823  000266  0100               	movlb	0	; () banked
   824  000268  6F73               	movwf	??_main& (0+255),b
   825  00026A  0ECA               	movlw	202
   826  00026C                     u1027:
   827  00026C  2EE8               	decfsz	wreg,f,c
   828  00026E  D7FE               	goto	u1027
   829  000270  2F73               	decfsz	??_main& (0+255),f,b
   830  000272  D7FC               	goto	u1027
   831  000274  0100               	movlb	0	; () banked
   832  000276  2B75               	incf	main@t& (0+255),f,b
   833  000278  D7F0               	goto	l2020
   834  00027A                     l2028:
   835                           
   836                           ; BSR set to: 0
   837                           ;main.c: 117: }
   838                           ;main.c: 118: seguiLinea();
   839  00027A  EC49  F002         	call	_seguiLinea	;wreg free
   840                           
   841                           ;main.c: 119: stopM();
   842  00027E  EC6D  F005         	call	_stopM	;wreg free
   843                           
   844                           ;main.c: 121: controllaColore();
   845  000282  ECD6  F002         	call	_controllaColore	;wreg free
   846                           
   847                           ;main.c: 125: numLinee++;
   848  000286  0100               	movlb	0	; () banked
   849  000288  2B74               	incf	main@numLinee& (0+255),f,b
   850                           
   851                           ; BSR set to: 0
   852                           ;main.c: 126: if(colore != goal_color){
   853  00028A  0100               	movlb	0	; () banked
   854  00028C  5187               	movf	_goal_color& (0+255),w,b
   855  00028E  0100               	movlb	0	; () banked
   856  000290  1986               	xorwf	_colore& (0+255),w,b
   857  000292  B4D8               	btfsc	status,2,c
   858  000294  D028               	goto	l2052
   859                           
   860                           ; BSR set to: 0
   861                           ;main.c: 130: LATC0 = 1;
   862  000296  808B               	bsf	3979,0,c	;volatile
   863                           
   864                           ; BSR set to: 0
   865                           ;main.c: 131: EPWM1_LoadDutyValue(700);
   866  000298  0E02               	movlw	2
   867  00029A  0100               	movlb	0	; () banked
   868  00029C  6F61               	movwf	(EPWM1_LoadDutyValue@dutyValue+1)& (0+255),b
   869  00029E  0EBC               	movlw	188
   870  0002A0  6F60               	movwf	EPWM1_LoadDutyValue@dutyValue& (0+255),b
   871  0002A2  ECA9  F005         	call	_EPWM1_LoadDutyValue	;wreg free
   872                           
   873                           ;main.c: 132: EPWM2_LoadDutyValue(712);
   874  0002A6  0E02               	movlw	2
   875  0002A8  0100               	movlb	0	; () banked
   876  0002AA  6F61               	movwf	(EPWM2_LoadDutyValue@dutyValue+1)& (0+255),b
   877  0002AC  0EC8               	movlw	200
   878  0002AE  6F60               	movwf	EPWM2_LoadDutyValue@dutyValue& (0+255),b
   879  0002B0  EC8B  F005         	call	_EPWM2_LoadDutyValue	;wreg free
   880                           
   881                           ;main.c: 133: for(uint8_t t = 0; t<=100; t++){
   882  0002B4  0E00               	movlw	0
   883  0002B6  0100               	movlb	0	; () banked
   884  0002B8  6F76               	movwf	main@t_1273& (0+255),b
   885  0002BA                     l2040:
   886                           
   887                           ; BSR set to: 0
   888  0002BA  0E64               	movlw	100
   889  0002BC  0100               	movlb	0	; () banked
   890  0002BE  6576               	cpfsgt	main@t_1273& (0+255),b
   891  0002C0  D001               	goto	l2044
   892  0002C2  D00B               	goto	l2048
   893  0002C4                     l2044:
   894                           
   895                           ; BSR set to: 0
   896                           ;main.c: 134: _delay((unsigned long)((10)*(64000000/4000.0)));
   897  0002C4  0ED0               	movlw	208
   898  0002C6  0100               	movlb	0	; () banked
   899  0002C8  6F73               	movwf	??_main& (0+255),b
   900  0002CA  0ECA               	movlw	202
   901  0002CC                     u1037:
   902  0002CC  2EE8               	decfsz	wreg,f,c
   903  0002CE  D7FE               	goto	u1037
   904  0002D0  2F73               	decfsz	??_main& (0+255),f,b
   905  0002D2  D7FC               	goto	u1037
   906  0002D4  0100               	movlb	0	; () banked
   907  0002D6  2B76               	incf	main@t_1273& (0+255),f,b
   908  0002D8  D7F0               	goto	l2040
   909  0002DA                     l2048:
   910                           
   911                           ; BSR set to: 0
   912                           ;main.c: 135: }
   913                           ;main.c: 136: seguiLinea();
   914  0002DA  EC49  F002         	call	_seguiLinea	;wreg free
   915                           
   916                           ;main.c: 137: stopM();
   917  0002DE  EC6D  F005         	call	_stopM	;wreg free
   918                           
   919                           ;main.c: 138: numLinee++;
   920  0002E2  0100               	movlb	0	; () banked
   921  0002E4  2B74               	incf	main@numLinee& (0+255),f,b
   922  0002E6                     l2052:
   923                           
   924                           ; BSR set to: 0
   925                           ;main.c: 139: }
   926                           ;main.c: 140: }
   927                           ;main.c: 148: EPWM1_LoadDutyValue(700);
   928  0002E6  0E02               	movlw	2
   929  0002E8  0100               	movlb	0	; () banked
   930  0002EA  6F61               	movwf	(EPWM1_LoadDutyValue@dutyValue+1)& (0+255),b
   931  0002EC  0EBC               	movlw	188
   932  0002EE  6F60               	movwf	EPWM1_LoadDutyValue@dutyValue& (0+255),b
   933  0002F0  ECA9  F005         	call	_EPWM1_LoadDutyValue	;wreg free
   934                           
   935                           ;main.c: 149: EPWM2_LoadDutyValue(300);
   936  0002F4  0E01               	movlw	1
   937  0002F6  0100               	movlb	0	; () banked
   938  0002F8  6F61               	movwf	(EPWM2_LoadDutyValue@dutyValue+1)& (0+255),b
   939  0002FA  0E2C               	movlw	44
   940  0002FC  6F60               	movwf	EPWM2_LoadDutyValue@dutyValue& (0+255),b
   941  0002FE  EC8B  F005         	call	_EPWM2_LoadDutyValue	;wreg free
   942                           
   943                           ;main.c: 150: LATC0 = 1;
   944  000302  808B               	bsf	3979,0,c	;volatile
   945                           
   946                           ;main.c: 151: for (uint8_t T=0; T <= 190; T=T+1){
   947  000304  0E00               	movlw	0
   948  000306  0100               	movlb	0	; () banked
   949  000308  6F79               	movwf	main@T_1274& (0+255),b
   950                           
   951                           ; BSR set to: 0
   952  00030A  0EBE               	movlw	190
   953  00030C  0100               	movlb	0	; () banked
   954  00030E  6579               	cpfsgt	main@T_1274& (0+255),b
   955  000310  D001               	goto	l2064
   956  000312  D00D               	goto	l2072
   957  000314                     l2064:
   958                           
   959                           ; BSR set to: 0
   960                           ;main.c: 152: _delay((unsigned long)((10)*(64000000/4000.0)));
   961  000314  0ED0               	movlw	208
   962  000316  0100               	movlb	0	; () banked
   963  000318  6F73               	movwf	??_main& (0+255),b
   964  00031A  0ECA               	movlw	202
   965  00031C                     u1047:
   966  00031C  2EE8               	decfsz	wreg,f,c
   967  00031E  D7FE               	goto	u1047
   968  000320  2F73               	decfsz	??_main& (0+255),f,b
   969  000322  D7FC               	goto	u1047
   970                           
   971                           ;main.c: 153: checkBatt();
   972  000324  EC66  F006         	call	_checkBatt	;wreg free
   973  000328  0100               	movlb	0	; () banked
   974  00032A  2979               	incf	main@T_1274& (0+255),w,b
   975  00032C  D7EC               	goto	L3
   976  00032E                     l2072:
   977                           
   978                           ; BSR set to: 0
   979                           ;main.c: 154: }
   980                           ;main.c: 156: EPWM1_LoadDutyValue(661);
   981  00032E  0E02               	movlw	2
   982  000330  0100               	movlb	0	; () banked
   983  000332  6F61               	movwf	(EPWM1_LoadDutyValue@dutyValue+1)& (0+255),b
   984  000334  0E95               	movlw	149
   985  000336  6F60               	movwf	EPWM1_LoadDutyValue@dutyValue& (0+255),b
   986  000338  ECA9  F005         	call	_EPWM1_LoadDutyValue	;wreg free
   987                           
   988                           ;main.c: 157: EPWM2_LoadDutyValue(670);
   989  00033C  0E02               	movlw	2
   990  00033E  0100               	movlb	0	; () banked
   991  000340  6F61               	movwf	(EPWM2_LoadDutyValue@dutyValue+1)& (0+255),b
   992  000342  0E9E               	movlw	158
   993  000344  6F60               	movwf	EPWM2_LoadDutyValue@dutyValue& (0+255),b
   994  000346  EC8B  F005         	call	_EPWM2_LoadDutyValue	;wreg free
   995                           
   996                           ;main.c: 158: LATC0 = 1;
   997  00034A  808B               	bsf	3979,0,c	;volatile
   998                           
   999                           ;main.c: 159: delay_mS(2000);
  1000  00034C  0E07               	movlw	7
  1001  00034E  0100               	movlb	0	; () banked
  1002  000350  6F6D               	movwf	(delay_mS@m_sec+1)& (0+255),b
  1003  000352  0ED0               	movlw	208
  1004  000354  6F6C               	movwf	delay_mS@m_sec& (0+255),b
  1005  000356  ECFD  F004         	call	_delay_mS	;wreg free
  1006                           
  1007                           ;main.c: 161: stopM();
  1008  00035A  EC6D  F005         	call	_stopM	;wreg free
  1009                           
  1010                           ;main.c: 162: sollevaCarrello();
  1011  00035E  EC4A  F003         	call	_sollevaCarrello	;wreg free
  1012                           
  1013                           ;main.c: 164: EPWM1_LoadDutyValue(361);
  1014  000362  0E01               	movlw	1
  1015  000364  0100               	movlb	0	; () banked
  1016  000366  6F61               	movwf	(EPWM1_LoadDutyValue@dutyValue+1)& (0+255),b
  1017  000368  0E69               	movlw	105
  1018  00036A  6F60               	movwf	EPWM1_LoadDutyValue@dutyValue& (0+255),b
  1019  00036C  ECA9  F005         	call	_EPWM1_LoadDutyValue	;wreg free
  1020                           
  1021                           ;main.c: 165: EPWM2_LoadDutyValue(372);
  1022  000370  0E01               	movlw	1
  1023  000372  0100               	movlb	0	; () banked
  1024  000374  6F61               	movwf	(EPWM2_LoadDutyValue@dutyValue+1)& (0+255),b
  1025  000376  0E74               	movlw	116
  1026  000378  6F60               	movwf	EPWM2_LoadDutyValue@dutyValue& (0+255),b
  1027  00037A  EC8B  F005         	call	_EPWM2_LoadDutyValue	;wreg free
  1028                           
  1029                           ;main.c: 166: LATC0 = 1;
  1030  00037E  808B               	bsf	3979,0,c	;volatile
  1031                           
  1032                           ;main.c: 167: delay_mS(1500);
  1033  000380  0E05               	movlw	5
  1034  000382  0100               	movlb	0	; () banked
  1035  000384  6F6D               	movwf	(delay_mS@m_sec+1)& (0+255),b
  1036  000386  0EDC               	movlw	220
  1037  000388  6F6C               	movwf	delay_mS@m_sec& (0+255),b
  1038  00038A  ECFD  F004         	call	_delay_mS	;wreg free
  1039                           
  1040                           ;main.c: 168: stopM();
  1041  00038E  EC6D  F005         	call	_stopM	;wreg free
  1042                           
  1043                           ;main.c: 174: EPWM1_LoadDutyValue(700);
  1044  000392  0E02               	movlw	2
  1045  000394  0100               	movlb	0	; () banked
  1046  000396  6F61               	movwf	(EPWM1_LoadDutyValue@dutyValue+1)& (0+255),b
  1047  000398  0EBC               	movlw	188
  1048  00039A  6F60               	movwf	EPWM1_LoadDutyValue@dutyValue& (0+255),b
  1049  00039C  ECA9  F005         	call	_EPWM1_LoadDutyValue	;wreg free
  1050                           
  1051                           ;main.c: 175: EPWM2_LoadDutyValue(300);
  1052  0003A0  0E01               	movlw	1
  1053  0003A2  0100               	movlb	0	; () banked
  1054  0003A4  6F61               	movwf	(EPWM2_LoadDutyValue@dutyValue+1)& (0+255),b
  1055  0003A6  0E2C               	movlw	44
  1056  0003A8  6F60               	movwf	EPWM2_LoadDutyValue@dutyValue& (0+255),b
  1057  0003AA  EC8B  F005         	call	_EPWM2_LoadDutyValue	;wreg free
  1058                           
  1059                           ;main.c: 176: LATC0 = 1;
  1060  0003AE  808B               	bsf	3979,0,c	;volatile
  1061  0003B0                     l2080:
  1062  0003B0  0E0D               	movlw	13
  1063  0003B2  EC4D  F005         	call	_ADC_GetConversion
  1064  0003B6  0E2D               	movlw	45
  1065  0003B8  0100               	movlb	0	; () banked
  1066  0003BA  5D60               	subwf	?_ADC_GetConversion& (0+255),w,b
  1067  0003BC  0E01               	movlw	1
  1068  0003BE  0100               	movlb	0	; () banked
  1069  0003C0  5961               	subwfb	(?_ADC_GetConversion+1)& (0+255),w,b
  1070  0003C2  A0D8               	btfss	status,0,c
  1071  0003C4  D7F5               	goto	l2080
  1072                           
  1073                           ; BSR set to: 0
  1074                           ;main.c: 179: EPWM1_LoadDutyValue(700);
  1075                           
  1076                           ; BSR set to: 0
  1077  0003C6  0E02               	movlw	2
  1078  0003C8  0100               	movlb	0	; () banked
  1079  0003CA  6F61               	movwf	(EPWM1_LoadDutyValue@dutyValue+1)& (0+255),b
  1080  0003CC  0EBC               	movlw	188
  1081  0003CE  6F60               	movwf	EPWM1_LoadDutyValue@dutyValue& (0+255),b
  1082  0003D0  ECA9  F005         	call	_EPWM1_LoadDutyValue	;wreg free
  1083                           
  1084                           ;main.c: 180: EPWM2_LoadDutyValue(712);
  1085  0003D4  0E02               	movlw	2
  1086  0003D6  0100               	movlb	0	; () banked
  1087  0003D8  6F61               	movwf	(EPWM2_LoadDutyValue@dutyValue+1)& (0+255),b
  1088  0003DA  0EC8               	movlw	200
  1089  0003DC  6F60               	movwf	EPWM2_LoadDutyValue@dutyValue& (0+255),b
  1090  0003DE  EC8B  F005         	call	_EPWM2_LoadDutyValue	;wreg free
  1091                           
  1092                           ;main.c: 181: LATC0 = 1;
  1093  0003E2  808B               	bsf	3979,0,c	;volatile
  1094                           
  1095                           ;main.c: 182: seguiLinea();
  1096  0003E4  EC49  F002         	call	_seguiLinea	;wreg free
  1097                           
  1098                           ;main.c: 185: while (numLinee>0){
  1099  0003E8  D01A               	goto	l2092
  1100  0003EA                     l2086:
  1101                           
  1102                           ;main.c: 186: EPWM1_LoadDutyValue(700);
  1103  0003EA  0E02               	movlw	2
  1104  0003EC  0100               	movlb	0	; () banked
  1105  0003EE  6F61               	movwf	(EPWM1_LoadDutyValue@dutyValue+1)& (0+255),b
  1106  0003F0  0EBC               	movlw	188
  1107  0003F2  6F60               	movwf	EPWM1_LoadDutyValue@dutyValue& (0+255),b
  1108  0003F4  ECA9  F005         	call	_EPWM1_LoadDutyValue	;wreg free
  1109                           
  1110                           ;main.c: 187: EPWM2_LoadDutyValue(712);
  1111  0003F8  0E02               	movlw	2
  1112  0003FA  0100               	movlb	0	; () banked
  1113  0003FC  6F61               	movwf	(EPWM2_LoadDutyValue@dutyValue+1)& (0+255),b
  1114  0003FE  0EC8               	movlw	200
  1115  000400  6F60               	movwf	EPWM2_LoadDutyValue@dutyValue& (0+255),b
  1116  000402  EC8B  F005         	call	_EPWM2_LoadDutyValue	;wreg free
  1117                           
  1118                           ;main.c: 188: LATC0 = 1;
  1119  000406  808B               	bsf	3979,0,c	;volatile
  1120                           
  1121                           ;main.c: 189: delay_mS(350);
  1122  000408  0E01               	movlw	1
  1123  00040A  0100               	movlb	0	; () banked
  1124  00040C  6F6D               	movwf	(delay_mS@m_sec+1)& (0+255),b
  1125  00040E  0E5E               	movlw	94
  1126  000410  6F6C               	movwf	delay_mS@m_sec& (0+255),b
  1127  000412  ECFD  F004         	call	_delay_mS	;wreg free
  1128                           
  1129                           ;main.c: 190: seguiLinea();
  1130  000416  EC49  F002         	call	_seguiLinea	;wreg free
  1131                           
  1132                           ;main.c: 191: numLinee--;
  1133  00041A  0100               	movlb	0	; () banked
  1134  00041C  0774               	decf	main@numLinee& (0+255),f,b
  1135  00041E                     l2092:
  1136  00041E  0100               	movlb	0	; () banked
  1137  000420  5174               	movf	main@numLinee& (0+255),w,b
  1138  000422  0100               	movlb	0	; () banked
  1139  000424  A4D8               	btfss	status,2,c
  1140  000426  D7E1               	goto	l2086
  1141                           
  1142                           ; BSR set to: 0
  1143                           ;main.c: 192: }
  1144                           ;main.c: 197: stopM();
  1145                           
  1146                           ; BSR set to: 0
  1147  000428  EC6D  F005         	call	_stopM	;wreg free
  1148                           
  1149                           ;main.c: 198: abbassaCarrello();
  1150  00042C  ECAB  F003         	call	_abbassaCarrello	;wreg free
  1151                           
  1152                           ;main.c: 200: EPWM1_LoadDutyValue(300);
  1153  000430  0E01               	movlw	1
  1154  000432  0100               	movlb	0	; () banked
  1155  000434  6F61               	movwf	(EPWM1_LoadDutyValue@dutyValue+1)& (0+255),b
  1156  000436  0E2C               	movlw	44
  1157  000438  6F60               	movwf	EPWM1_LoadDutyValue@dutyValue& (0+255),b
  1158  00043A  ECA9  F005         	call	_EPWM1_LoadDutyValue	;wreg free
  1159                           
  1160                           ;main.c: 201: EPWM2_LoadDutyValue(300);
  1161  00043E  0E01               	movlw	1
  1162  000440  0100               	movlb	0	; () banked
  1163  000442  6F61               	movwf	(EPWM2_LoadDutyValue@dutyValue+1)& (0+255),b
  1164  000444  0E2C               	movlw	44
  1165  000446  6F60               	movwf	EPWM2_LoadDutyValue@dutyValue& (0+255),b
  1166  000448  EC8B  F005         	call	_EPWM2_LoadDutyValue	;wreg free
  1167                           
  1168                           ;main.c: 202: LATC0 = 1;
  1169  00044C  808B               	bsf	3979,0,c	;volatile
  1170                           
  1171                           ;main.c: 203: delay_mS(2000);
  1172  00044E  0E07               	movlw	7
  1173  000450  0100               	movlb	0	; () banked
  1174  000452  6F6D               	movwf	(delay_mS@m_sec+1)& (0+255),b
  1175  000454  0ED0               	movlw	208
  1176  000456  6F6C               	movwf	delay_mS@m_sec& (0+255),b
  1177  000458  ECFD  F004         	call	_delay_mS	;wreg free
  1178                           
  1179                           ;main.c: 204: stopM();
  1180  00045C  EC6D  F005         	call	_stopM	;wreg free
  1181                           
  1182                           ;main.c: 207: EPWM1_LoadDutyValue(700);
  1183  000460  0E02               	movlw	2
  1184  000462  0100               	movlb	0	; () banked
  1185  000464  6F61               	movwf	(EPWM1_LoadDutyValue@dutyValue+1)& (0+255),b
  1186  000466  0EBC               	movlw	188
  1187  000468  6F60               	movwf	EPWM1_LoadDutyValue@dutyValue& (0+255),b
  1188  00046A  ECA9  F005         	call	_EPWM1_LoadDutyValue	;wreg free
  1189                           
  1190                           ;main.c: 208: EPWM2_LoadDutyValue(300);
  1191  00046E  0E01               	movlw	1
  1192  000470  0100               	movlb	0	; () banked
  1193  000472  6F61               	movwf	(EPWM2_LoadDutyValue@dutyValue+1)& (0+255),b
  1194  000474  0E2C               	movlw	44
  1195  000476  6F60               	movwf	EPWM2_LoadDutyValue@dutyValue& (0+255),b
  1196  000478  EC8B  F005         	call	_EPWM2_LoadDutyValue	;wreg free
  1197                           
  1198                           ;main.c: 209: LATC0 = 1;
  1199  00047C  808B               	bsf	3979,0,c	;volatile
  1200                           
  1201                           ;main.c: 210: delay_mS(4000);
  1202  00047E  0E0F               	movlw	15
  1203  000480  0100               	movlb	0	; () banked
  1204  000482  6F6D               	movwf	(delay_mS@m_sec+1)& (0+255),b
  1205  000484  0EA0               	movlw	160
  1206  000486  6F6C               	movwf	delay_mS@m_sec& (0+255),b
  1207  000488  ECFD  F004         	call	_delay_mS	;wreg free
  1208                           
  1209                           ;main.c: 211: stopM();
  1210  00048C  EC6D  F005         	call	_stopM	;wreg free
  1211  000490  D62E               	goto	l1968
  1212  000492                     __end_of_main:
  1213                           	opt stack 0
  1214                           tblptru	equ	0xFF8
  1215                           tblptrh	equ	0xFF7
  1216                           tblptrl	equ	0xFF6
  1217                           tablat	equ	0xFF5
  1218                           intcon	equ	0xFF2
  1219                           intcon2	equ	0xFF1
  1220                           intcon3	equ	0xFF0
  1221                           postinc0	equ	0xFEE
  1222                           wreg	equ	0xFE8
  1223                           postdec1	equ	0xFE5
  1224                           fsr1l	equ	0xFE1
  1225                           status	equ	0xFD8
  1226                           
  1227 ;; *************** function _taratura *****************
  1228 ;; Defined at:
  1229 ;;		line 92 in file "user.c"
  1230 ;; Parameters:    Size  Location     Type
  1231 ;;		None
  1232 ;; Auto vars:     Size  Location     Type
  1233 ;;  v_sensori       2   17[BANK0 ] unsigned int 
  1234 ;; Return value:  Size  Location     Type
  1235 ;;		None               void
  1236 ;; Registers used:
  1237 ;;		wreg, status,2, status,0, cstack
  1238 ;; Tracked objects:
  1239 ;;		On entry : 0/0
  1240 ;;		On exit  : 0/0
  1241 ;;		Unchanged: 0/0
  1242 ;; Data sizes:     COMRAM   BANK0   BANK1   BANK2
  1243 ;;      Params:         0       0       0       0
  1244 ;;      Locals:         0       2       0       0
  1245 ;;      Temps:          0       2       0       0
  1246 ;;      Totals:         0       4       0       0
  1247 ;;Total ram usage:        4 bytes
  1248 ;; Hardware stack levels used:    1
  1249 ;; Hardware stack levels required when called:    5
  1250 ;; This function calls:
  1251 ;;		_ADC_GetConversion
  1252 ;;		___lwdiv
  1253 ;;		_delay_mS
  1254 ;; This function is called by:
  1255 ;;		_main
  1256 ;; This function uses a non-reentrant model
  1257 ;;
  1258                           
  1259                           	psect	text1
  1260  000818                     __ptext1:
  1261                           	opt stack 0
  1262  000818                     _taratura:
  1263                           	opt stack 25
  1264                           
  1265                           ;user.c: 93: LATA0 = 0;
  1266                           
  1267                           ;incstack = 0
  1268  000818  9089               	bcf	3977,0,c	;volatile
  1269                           
  1270                           ;user.c: 94: LATA1 = 0;
  1271  00081A  9289               	bcf	3977,1,c	;volatile
  1272                           
  1273                           ;user.c: 95: LATA2 = 0;
  1274  00081C  9489               	bcf	3977,2,c	;volatile
  1275                           
  1276                           ;user.c: 98: delay_mS(1000);
  1277  00081E  0E03               	movlw	3
  1278  000820  0100               	movlb	0	; () banked
  1279  000822  6F6D               	movwf	(delay_mS@m_sec+1)& (0+255),b
  1280  000824  0EE8               	movlw	232
  1281  000826  6F6C               	movwf	delay_mS@m_sec& (0+255),b
  1282  000828  ECFD  F004         	call	_delay_mS	;wreg free
  1283                           
  1284                           ;user.c: 99: while(PORTBbits.RB1){
  1285  00082C  D04E               	goto	l322
  1286  00082E                     l1796:
  1287                           
  1288                           ;user.c: 100: uint16_t v_sensori = ADC_GetConversion(channel_AN13)/10;
  1289  00082E  0E0D               	movlw	13
  1290  000830  EC4D  F005         	call	_ADC_GetConversion
  1291  000834  C060  F065         	movff	?_ADC_GetConversion,___lwdiv@dividend
  1292  000838  C061  F066         	movff	?_ADC_GetConversion+1,___lwdiv@dividend+1
  1293  00083C  0E00               	movlw	0
  1294  00083E  0100               	movlb	0	; () banked
  1295  000840  6F68               	movwf	(___lwdiv@divisor+1)& (0+255),b
  1296  000842  0E0A               	movlw	10
  1297  000844  6F67               	movwf	___lwdiv@divisor& (0+255),b
  1298  000846  ECC1  F004         	call	___lwdiv	;wreg free
  1299  00084A  C065  F071         	movff	?___lwdiv,taratura@v_sensori
  1300  00084E  C066  F072         	movff	?___lwdiv+1,taratura@v_sensori+1
  1301                           
  1302                           ;user.c: 101: switch (v_sensori){
  1303  000852  D016               	goto	l1800
  1304  000854                     l325:
  1305                           
  1306                           ; BSR set to: 0
  1307                           ;user.c: 103: LATA0 = 1;
  1308  000854  8089               	bsf	3977,0,c	;volatile
  1309  000856  D012               	goto	L8
  1310  000858                     l327:
  1311                           
  1312                           ; BSR set to: 0
  1313                           ;user.c: 108: LATA0 = 0;
  1314  000858  9089               	bcf	3977,0,c	;volatile
  1315  00085A  D006               	goto	L5
  1316  00085C                     L4:
  1317                           
  1318                           ;user.c: 110: LATA2 = 0;
  1319  00085C  9489               	bcf	3977,2,c	;volatile
  1320                           
  1321                           ;user.c: 111: break;
  1322  00085E  D035               	goto	l322
  1323  000860                     l328:
  1324                           
  1325                           ; BSR set to: 0
  1326                           ;user.c: 113: LATA0 = 0;
  1327  000860  9089               	bcf	3977,0,c	;volatile
  1328                           
  1329                           ;user.c: 114: LATA1 = 0;
  1330  000862  9289               	bcf	3977,1,c	;volatile
  1331  000864  D005               	goto	L6
  1332  000866                     l329:
  1333                           
  1334                           ; BSR set to: 0
  1335                           ;user.c: 118: LATA0 = 1;
  1336  000866  8089               	bsf	3977,0,c	;volatile
  1337  000868                     L5:
  1338                           
  1339                           ;user.c: 119: LATA1 = 1;
  1340  000868  8289               	bsf	3977,1,c	;volatile
  1341  00086A  D7F8               	goto	L4
  1342  00086C                     l330:
  1343                           
  1344                           ; BSR set to: 0
  1345                           ;user.c: 123: LATA0 = 0;
  1346  00086C  9089               	bcf	3977,0,c	;volatile
  1347  00086E  D003               	goto	L7
  1348  000870                     L6:
  1349                           
  1350                           ;user.c: 125: LATA2 = 1;
  1351  000870  8489               	bsf	3977,2,c	;volatile
  1352                           
  1353                           ;user.c: 126: break;
  1354  000872  D02B               	goto	l322
  1355  000874                     l331:
  1356                           
  1357                           ; BSR set to: 0
  1358                           ;user.c: 128: LATA0 = 1;
  1359  000874  8089               	bsf	3977,0,c	;volatile
  1360  000876                     L7:
  1361                           
  1362                           ;user.c: 129: LATA1 = 1;
  1363  000876  8289               	bsf	3977,1,c	;volatile
  1364  000878  D7FB               	goto	L6
  1365  00087A                     l332:
  1366                           
  1367                           ; BSR set to: 0
  1368                           ;user.c: 133: LATA0 = 0;
  1369  00087A  9089               	bcf	3977,0,c	;volatile
  1370  00087C                     L8:
  1371                           
  1372                           ;user.c: 134: LATA1 = 0;
  1373  00087C  9289               	bcf	3977,1,c	;volatile
  1374  00087E  D7EE               	goto	L4
  1375  000880                     l1800:
  1376  000880  C071  F06F         	movff	taratura@v_sensori,??_taratura
  1377  000884  C072  F070         	movff	taratura@v_sensori+1,??_taratura+1
  1378                           
  1379                           ; Switch on 2 bytes has been partitioned into a top level switch of size 1, and 2 sub-sw
      +                          itches
  1380                           ; Switch size 1, requested type "space"
  1381                           ; Number of cases is 2, Range of values is 0 to 2
  1382                           ; switch strategies available:
  1383                           ; Name         Instructions Cycles
  1384                           ; simple_byte            7     4 (average)
  1385                           ;	Chosen strategy is simple_byte
  1386  000888  0100               	movlb	0	; () banked
  1387  00088A  5170               	movf	(??_taratura+1)& (0+255),w,b
  1388  00088C  0A00               	xorlw	0	; case 0
  1389  00088E  B4D8               	btfsc	status,2,c
  1390  000890  D004               	goto	l2180
  1391  000892  0A02               	xorlw	2	; case 2
  1392  000894  B4D8               	btfsc	status,2,c
  1393  000896  D013               	goto	l2182
  1394  000898  D7F0               	goto	l332
  1395  00089A                     l2180:
  1396                           
  1397                           ; BSR set to: 0
  1398                           ; Switch size 1, requested type "space"
  1399                           ; Number of cases is 5, Range of values is 16 to 68
  1400                           ; switch strategies available:
  1401                           ; Name         Instructions Cycles
  1402                           ; simple_byte           16     9 (average)
  1403                           ;	Chosen strategy is simple_byte
  1404  00089A  0100               	movlb	0	; () banked
  1405  00089C  516F               	movf	??_taratura& (0+255),w,b
  1406  00089E  0A10               	xorlw	16	; case 16
  1407  0008A0  B4D8               	btfsc	status,2,c
  1408  0008A2  D7D8               	goto	l325
  1409  0008A4  0A0C               	xorlw	12	; case 28
  1410  0008A6  B4D8               	btfsc	status,2,c
  1411  0008A8  D7D7               	goto	l327
  1412  0008AA  0A34               	xorlw	52	; case 40
  1413  0008AC  B4D8               	btfsc	status,2,c
  1414  0008AE  D7DB               	goto	l329
  1415  0008B0  0A1B               	xorlw	27	; case 51
  1416  0008B2  B4D8               	btfsc	status,2,c
  1417  0008B4  D7D5               	goto	l328
  1418  0008B6  0A77               	xorlw	119	; case 68
  1419  0008B8  B4D8               	btfsc	status,2,c
  1420  0008BA  D7D8               	goto	l330
  1421  0008BC  D7DE               	goto	l332
  1422  0008BE                     l2182:
  1423                           
  1424                           ; BSR set to: 0
  1425                           ; Switch size 1, requested type "space"
  1426                           ; Number of cases is 1, Range of values is 238 to 238
  1427                           ; switch strategies available:
  1428                           ; Name         Instructions Cycles
  1429                           ; simple_byte            4     3 (average)
  1430                           ;	Chosen strategy is simple_byte
  1431  0008BE  0100               	movlb	0	; () banked
  1432  0008C0  516F               	movf	??_taratura& (0+255),w,b
  1433  0008C2  0AEE               	xorlw	238	; case 238
  1434  0008C4  B4D8               	btfsc	status,2,c
  1435  0008C6  D7D6               	goto	l331
  1436  0008C8  D7D8               	goto	l332
  1437  0008CA                     l322:
  1438  0008CA  B281               	btfsc	3969,1,c	;volatile
  1439  0008CC  D7B0               	goto	l1796
  1440                           
  1441                           ;user.c: 138: }
  1442                           ;user.c: 140: LATA0 = 0;
  1443  0008CE  9089               	bcf	3977,0,c	;volatile
  1444                           
  1445                           ;user.c: 141: LATA1 = 0;
  1446  0008D0  9289               	bcf	3977,1,c	;volatile
  1447                           
  1448                           ;user.c: 142: LATA2 = 0;
  1449  0008D2  9489               	bcf	3977,2,c	;volatile
  1450                           
  1451                           ;user.c: 143: (INTCONbits.GIE = 1);
  1452  0008D4  8EF2               	bsf	intcon,7,c	;volatile
  1453  0008D6  0012               	return		;funcret
  1454  0008D8                     __end_of_taratura:
  1455                           	opt stack 0
  1456                           tblptru	equ	0xFF8
  1457                           tblptrh	equ	0xFF7
  1458                           tblptrl	equ	0xFF6
  1459                           tablat	equ	0xFF5
  1460                           intcon	equ	0xFF2
  1461                           intcon2	equ	0xFF1
  1462                           intcon3	equ	0xFF0
  1463                           postinc0	equ	0xFEE
  1464                           wreg	equ	0xFE8
  1465                           postdec1	equ	0xFE5
  1466                           fsr1l	equ	0xFE1
  1467                           status	equ	0xFD8
  1468                           
  1469 ;; *************** function _stopM *****************
  1470 ;; Defined at:
  1471 ;;		line 186 in file "user.c"
  1472 ;; Parameters:    Size  Location     Type
  1473 ;;		None
  1474 ;; Auto vars:     Size  Location     Type
  1475 ;;		None
  1476 ;; Return value:  Size  Location     Type
  1477 ;;		None               void
  1478 ;; Registers used:
  1479 ;;		wreg, status,2, status,0, cstack
  1480 ;; Tracked objects:
  1481 ;;		On entry : 0/0
  1482 ;;		On exit  : 0/0
  1483 ;;		Unchanged: 0/0
  1484 ;; Data sizes:     COMRAM   BANK0   BANK1   BANK2
  1485 ;;      Params:         0       0       0       0
  1486 ;;      Locals:         0       0       0       0
  1487 ;;      Temps:          0       1       0       0
  1488 ;;      Totals:         0       1       0       0
  1489 ;;Total ram usage:        1 bytes
  1490 ;; Hardware stack levels used:    1
  1491 ;; Hardware stack levels required when called:    4
  1492 ;; This function calls:
  1493 ;;		_EPWM1_LoadDutyValue
  1494 ;;		_EPWM2_LoadDutyValue
  1495 ;; This function is called by:
  1496 ;;		_main
  1497 ;; This function uses a non-reentrant model
  1498 ;;
  1499                           
  1500                           	psect	text2
  1501  000ADA                     __ptext2:
  1502                           	opt stack 0
  1503  000ADA                     _stopM:
  1504                           	opt stack 26
  1505                           
  1506                           ;user.c: 187: EPWM1_LoadDutyValue(511);
  1507                           
  1508                           ;incstack = 0
  1509  000ADA  0E01               	movlw	1
  1510  000ADC  0100               	movlb	0	; () banked
  1511  000ADE  6F61               	movwf	(EPWM1_LoadDutyValue@dutyValue+1)& (0+255),b
  1512  000AE0  6960               	setf	EPWM1_LoadDutyValue@dutyValue& (0+255),b
  1513  000AE2  ECA9  F005         	call	_EPWM1_LoadDutyValue	;wreg free
  1514                           
  1515                           ;user.c: 188: EPWM2_LoadDutyValue(511);
  1516  000AE6  0E01               	movlw	1
  1517  000AE8  0100               	movlb	0	; () banked
  1518  000AEA  6F61               	movwf	(EPWM2_LoadDutyValue@dutyValue+1)& (0+255),b
  1519  000AEC  6960               	setf	EPWM2_LoadDutyValue@dutyValue& (0+255),b
  1520  000AEE  EC8B  F005         	call	_EPWM2_LoadDutyValue	;wreg free
  1521                           
  1522                           ;user.c: 189: _delay((unsigned long)((10)*(64000000/4000.0)));
  1523  000AF2  0ED0               	movlw	208
  1524  000AF4  0100               	movlb	0	; () banked
  1525  000AF6  6F64               	movwf	??_stopM& (0+255),b
  1526  000AF8  0ECA               	movlw	202
  1527  000AFA                     u1057:
  1528  000AFA  2EE8               	decfsz	wreg,f,c
  1529  000AFC  D7FE               	goto	u1057
  1530  000AFE  2F64               	decfsz	??_stopM& (0+255),f,b
  1531  000B00  D7FC               	goto	u1057
  1532                           
  1533                           ;user.c: 190: _delay((unsigned long)((10)*(64000000/4000.0)));
  1534  000B02  0ED0               	movlw	208
  1535  000B04  0100               	movlb	0	; () banked
  1536  000B06  6F64               	movwf	??_stopM& (0+255),b
  1537  000B08  0ECA               	movlw	202
  1538  000B0A                     u1067:
  1539  000B0A  2EE8               	decfsz	wreg,f,c
  1540  000B0C  D7FE               	goto	u1067
  1541  000B0E  2F64               	decfsz	??_stopM& (0+255),f,b
  1542  000B10  D7FC               	goto	u1067
  1543                           
  1544                           ;user.c: 191: LATC0 = 0;
  1545  000B12  908B               	bcf	3979,0,c	;volatile
  1546  000B14  0012               	return		;funcret
  1547  000B16                     __end_of_stopM:
  1548                           	opt stack 0
  1549                           tblptru	equ	0xFF8
  1550                           tblptrh	equ	0xFF7
  1551                           tblptrl	equ	0xFF6
  1552                           tablat	equ	0xFF5
  1553                           intcon	equ	0xFF2
  1554                           intcon2	equ	0xFF1
  1555                           intcon3	equ	0xFF0
  1556                           postinc0	equ	0xFEE
  1557                           wreg	equ	0xFE8
  1558                           postdec1	equ	0xFE5
  1559                           fsr1l	equ	0xFE1
  1560                           status	equ	0xFD8
  1561                           
  1562 ;; *************** function _sollevaCarrello *****************
  1563 ;; Defined at:
  1564 ;;		line 216 in file "user.c"
  1565 ;; Parameters:    Size  Location     Type
  1566 ;;		None
  1567 ;; Auto vars:     Size  Location     Type
  1568 ;;  p               1    1[BANK0 ] unsigned char 
  1569 ;; Return value:  Size  Location     Type
  1570 ;;		None               void
  1571 ;; Registers used:
  1572 ;;		wreg, status,2, status,0
  1573 ;; Tracked objects:
  1574 ;;		On entry : 0/0
  1575 ;;		On exit  : 0/0
  1576 ;;		Unchanged: 0/0
  1577 ;; Data sizes:     COMRAM   BANK0   BANK1   BANK2
  1578 ;;      Params:         0       0       0       0
  1579 ;;      Locals:         0       1       0       0
  1580 ;;      Temps:          0       1       0       0
  1581 ;;      Totals:         0       2       0       0
  1582 ;;Total ram usage:        2 bytes
  1583 ;; Hardware stack levels used:    1
  1584 ;; Hardware stack levels required when called:    3
  1585 ;; This function calls:
  1586 ;;		Nothing
  1587 ;; This function is called by:
  1588 ;;		_main
  1589 ;; This function uses a non-reentrant model
  1590 ;;
  1591                           
  1592                           	psect	text3
  1593  000694                     __ptext3:
  1594                           	opt stack 0
  1595  000694                     _sollevaCarrello:
  1596                           	opt stack 27
  1597                           
  1598                           ;user.c: 217: uint8_t p = 0;
  1599                           
  1600                           ;incstack = 0
  1601  000694  0E00               	movlw	0
  1602  000696  0100               	movlb	0	; () banked
  1603  000698  6F61               	movwf	sollevaCarrello@p& (0+255),b
  1604                           
  1605                           ;user.c: 218: for(p=0; p<43;p++)
  1606  00069A  0E00               	movlw	0
  1607  00069C  0100               	movlb	0	; () banked
  1608  00069E  6F61               	movwf	sollevaCarrello@p& (0+255),b
  1609  0006A0                     l1852:
  1610                           
  1611                           ; BSR set to: 0
  1612  0006A0  0E2A               	movlw	42
  1613  0006A2  0100               	movlb	0	; () banked
  1614  0006A4  6561               	cpfsgt	sollevaCarrello@p& (0+255),b
  1615  0006A6  D001               	goto	l357
  1616  0006A8  D054               	goto	l358
  1617  0006AA                     l357:
  1618                           
  1619                           ; BSR set to: 0
  1620                           ;user.c: 219: {
  1621                           ;user.c: 220: LATC7 = 1;
  1622  0006AA  8E8B               	bsf	3979,7,c	;volatile
  1623                           
  1624                           ;user.c: 221: LATC4=0;
  1625  0006AC  988B               	bcf	3979,4,c	;volatile
  1626                           
  1627                           ;user.c: 222: LATC5=1;
  1628  0006AE  8A8B               	bsf	3979,5,c	;volatile
  1629                           
  1630                           ;user.c: 223: LATC3=1;
  1631  0006B0  868B               	bsf	3979,3,c	;volatile
  1632                           
  1633                           ;user.c: 224: LATC6=0;
  1634  0006B2  9C8B               	bcf	3979,6,c	;volatile
  1635                           
  1636                           ; BSR set to: 0
  1637                           ;user.c: 225: _delay((unsigned long)((10)*(64000000/4000.0)));
  1638  0006B4  0ED0               	movlw	208
  1639  0006B6  0100               	movlb	0	; () banked
  1640  0006B8  6F60               	movwf	??_sollevaCarrello& (0+255),b
  1641  0006BA  0ECA               	movlw	202
  1642  0006BC                     u1077:
  1643  0006BC  2EE8               	decfsz	wreg,f,c
  1644  0006BE  D7FE               	goto	u1077
  1645  0006C0  2F60               	decfsz	??_sollevaCarrello& (0+255),f,b
  1646  0006C2  D7FC               	goto	u1077
  1647                           
  1648                           ;user.c: 226: _delay((unsigned long)((2)*(64000000/4000.0)));
  1649  0006C4  0E2A               	movlw	42
  1650  0006C6  0100               	movlb	0	; () banked
  1651  0006C8  6F60               	movwf	??_sollevaCarrello& (0+255),b
  1652  0006CA  0E8E               	movlw	142
  1653  0006CC                     u1087:
  1654  0006CC  2EE8               	decfsz	wreg,f,c
  1655  0006CE  D7FE               	goto	u1087
  1656  0006D0  2F60               	decfsz	??_sollevaCarrello& (0+255),f,b
  1657  0006D2  D7FC               	goto	u1087
  1658                           
  1659                           ;user.c: 227: LATC4=0;
  1660  0006D4  988B               	bcf	3979,4,c	;volatile
  1661                           
  1662                           ;user.c: 228: LATC5=0;
  1663  0006D6  9A8B               	bcf	3979,5,c	;volatile
  1664                           
  1665                           ;user.c: 229: LATC3=1;
  1666  0006D8  868B               	bsf	3979,3,c	;volatile
  1667                           
  1668                           ;user.c: 230: LATC6=1;
  1669  0006DA  8C8B               	bsf	3979,6,c	;volatile
  1670                           
  1671                           ;user.c: 231: _delay((unsigned long)((10)*(64000000/4000.0)));
  1672  0006DC  0ED0               	movlw	208
  1673  0006DE  0100               	movlb	0	; () banked
  1674  0006E0  6F60               	movwf	??_sollevaCarrello& (0+255),b
  1675  0006E2  0ECA               	movlw	202
  1676  0006E4                     u1097:
  1677  0006E4  2EE8               	decfsz	wreg,f,c
  1678  0006E6  D7FE               	goto	u1097
  1679  0006E8  2F60               	decfsz	??_sollevaCarrello& (0+255),f,b
  1680  0006EA  D7FC               	goto	u1097
  1681                           
  1682                           ;user.c: 232: _delay((unsigned long)((2)*(64000000/4000.0)));
  1683  0006EC  0E2A               	movlw	42
  1684  0006EE  0100               	movlb	0	; () banked
  1685  0006F0  6F60               	movwf	??_sollevaCarrello& (0+255),b
  1686  0006F2  0E8E               	movlw	142
  1687  0006F4                     u1107:
  1688  0006F4  2EE8               	decfsz	wreg,f,c
  1689  0006F6  D7FE               	goto	u1107
  1690  0006F8  2F60               	decfsz	??_sollevaCarrello& (0+255),f,b
  1691  0006FA  D7FC               	goto	u1107
  1692                           
  1693                           ;user.c: 233: LATC4=1;
  1694  0006FC  888B               	bsf	3979,4,c	;volatile
  1695                           
  1696                           ;user.c: 234: LATC5=0;
  1697  0006FE  9A8B               	bcf	3979,5,c	;volatile
  1698                           
  1699                           ;user.c: 235: LATC3=0;
  1700  000700  968B               	bcf	3979,3,c	;volatile
  1701                           
  1702                           ;user.c: 236: LATC6=1;
  1703  000702  8C8B               	bsf	3979,6,c	;volatile
  1704                           
  1705                           ;user.c: 237: _delay((unsigned long)((10)*(64000000/4000.0)));
  1706  000704  0ED0               	movlw	208
  1707  000706  0100               	movlb	0	; () banked
  1708  000708  6F60               	movwf	??_sollevaCarrello& (0+255),b
  1709  00070A  0ECA               	movlw	202
  1710  00070C                     u1117:
  1711  00070C  2EE8               	decfsz	wreg,f,c
  1712  00070E  D7FE               	goto	u1117
  1713  000710  2F60               	decfsz	??_sollevaCarrello& (0+255),f,b
  1714  000712  D7FC               	goto	u1117
  1715                           
  1716                           ;user.c: 238: _delay((unsigned long)((2)*(64000000/4000.0)));
  1717  000714  0E2A               	movlw	42
  1718  000716  0100               	movlb	0	; () banked
  1719  000718  6F60               	movwf	??_sollevaCarrello& (0+255),b
  1720  00071A  0E8E               	movlw	142
  1721  00071C                     u1127:
  1722  00071C  2EE8               	decfsz	wreg,f,c
  1723  00071E  D7FE               	goto	u1127
  1724  000720  2F60               	decfsz	??_sollevaCarrello& (0+255),f,b
  1725  000722  D7FC               	goto	u1127
  1726                           
  1727                           ;user.c: 239: LATC4=1;
  1728  000724  888B               	bsf	3979,4,c	;volatile
  1729                           
  1730                           ;user.c: 240: LATC5=1;
  1731  000726  8A8B               	bsf	3979,5,c	;volatile
  1732                           
  1733                           ;user.c: 241: LATC3=0;
  1734  000728  968B               	bcf	3979,3,c	;volatile
  1735                           
  1736                           ;user.c: 242: LATC6=0;
  1737  00072A  9C8B               	bcf	3979,6,c	;volatile
  1738                           
  1739                           ;user.c: 243: _delay((unsigned long)((10)*(64000000/4000.0)));
  1740  00072C  0ED0               	movlw	208
  1741  00072E  0100               	movlb	0	; () banked
  1742  000730  6F60               	movwf	??_sollevaCarrello& (0+255),b
  1743  000732  0ECA               	movlw	202
  1744  000734                     u1137:
  1745  000734  2EE8               	decfsz	wreg,f,c
  1746  000736  D7FE               	goto	u1137
  1747  000738  2F60               	decfsz	??_sollevaCarrello& (0+255),f,b
  1748  00073A  D7FC               	goto	u1137
  1749                           
  1750                           ;user.c: 244: _delay((unsigned long)((2)*(64000000/4000.0)));
  1751  00073C  0E2A               	movlw	42
  1752  00073E  0100               	movlb	0	; () banked
  1753  000740  6F60               	movwf	??_sollevaCarrello& (0+255),b
  1754  000742  0E8E               	movlw	142
  1755  000744                     u1147:
  1756  000744  2EE8               	decfsz	wreg,f,c
  1757  000746  D7FE               	goto	u1147
  1758  000748  2F60               	decfsz	??_sollevaCarrello& (0+255),f,b
  1759  00074A  D7FC               	goto	u1147
  1760  00074C  0100               	movlb	0	; () banked
  1761  00074E  2B61               	incf	sollevaCarrello@p& (0+255),f,b
  1762  000750  D7A7               	goto	l1852
  1763  000752                     l358:
  1764                           
  1765                           ; BSR set to: 0
  1766                           ;user.c: 246: }
  1767                           ;user.c: 247: LATC7 = 0;
  1768  000752  9E8B               	bcf	3979,7,c	;volatile
  1769                           
  1770                           ; BSR set to: 0
  1771  000754  0012               	return		;funcret
  1772  000756                     __end_of_sollevaCarrello:
  1773                           	opt stack 0
  1774                           tblptru	equ	0xFF8
  1775                           tblptrh	equ	0xFF7
  1776                           tblptrl	equ	0xFF6
  1777                           tablat	equ	0xFF5
  1778                           intcon	equ	0xFF2
  1779                           intcon2	equ	0xFF1
  1780                           intcon3	equ	0xFF0
  1781                           postinc0	equ	0xFEE
  1782                           wreg	equ	0xFE8
  1783                           postdec1	equ	0xFE5
  1784                           fsr1l	equ	0xFE1
  1785                           status	equ	0xFD8
  1786                           
  1787 ;; *************** function _seguiLinea *****************
  1788 ;; Defined at:
  1789 ;;		line 57 in file "user.c"
  1790 ;; Parameters:    Size  Location     Type
  1791 ;;		None
  1792 ;; Auto vars:     Size  Location     Type
  1793 ;;  T               1    6[BANK0 ] unsigned char 
  1794 ;; Return value:  Size  Location     Type
  1795 ;;		None               void
  1796 ;; Registers used:
  1797 ;;		wreg, status,2, status,0, cstack
  1798 ;; Tracked objects:
  1799 ;;		On entry : 0/0
  1800 ;;		On exit  : 0/0
  1801 ;;		Unchanged: 0/0
  1802 ;; Data sizes:     COMRAM   BANK0   BANK1   BANK2
  1803 ;;      Params:         0       0       0       0
  1804 ;;      Locals:         0       1       0       0
  1805 ;;      Temps:          0       1       0       0
  1806 ;;      Totals:         0       2       0       0
  1807 ;;Total ram usage:        2 bytes
  1808 ;; Hardware stack levels used:    1
  1809 ;; Hardware stack levels required when called:    4
  1810 ;; This function calls:
  1811 ;;		_ADC_GetConversion
  1812 ;;		_EPWM1_LoadDutyValue
  1813 ;;		_EPWM2_LoadDutyValue
  1814 ;; This function is called by:
  1815 ;;		_main
  1816 ;; This function uses a non-reentrant model
  1817 ;;
  1818                           
  1819                           	psect	text4
  1820  000492                     __ptext4:
  1821                           	opt stack 0
  1822  000492                     _seguiLinea:
  1823                           	opt stack 26
  1824                           
  1825                           ;user.c: 59: EPWM1_LoadDutyValue(700);
  1826                           
  1827                           ; BSR set to: 0
  1828                           ;incstack = 0
  1829  000492  0E02               	movlw	2
  1830  000494  0100               	movlb	0	; () banked
  1831  000496  6F61               	movwf	(EPWM1_LoadDutyValue@dutyValue+1)& (0+255),b
  1832  000498  0EBC               	movlw	188
  1833  00049A  6F60               	movwf	EPWM1_LoadDutyValue@dutyValue& (0+255),b
  1834  00049C  ECA9  F005         	call	_EPWM1_LoadDutyValue	;wreg free
  1835                           
  1836                           ;user.c: 60: EPWM2_LoadDutyValue(712);
  1837  0004A0  0E02               	movlw	2
  1838  0004A2  0100               	movlb	0	; () banked
  1839  0004A4  6F61               	movwf	(EPWM2_LoadDutyValue@dutyValue+1)& (0+255),b
  1840  0004A6  0EC8               	movlw	200
  1841  0004A8  6F60               	movwf	EPWM2_LoadDutyValue@dutyValue& (0+255),b
  1842  0004AA  EC8B  F005         	call	_EPWM2_LoadDutyValue	;wreg free
  1843                           
  1844                           ;user.c: 61: LATC0 = 1;
  1845  0004AE  808B               	bsf	3979,0,c	;volatile
  1846                           
  1847                           ;user.c: 65: while(ADC_GetConversion(channel_AN13)<750){
  1848  0004B0  D071               	goto	l1790
  1849  0004B2                     l1756:
  1850                           
  1851                           ;user.c: 66: deltaV = ADC_GetConversion(channel_AN13);
  1852  0004B2  0E0D               	movlw	13
  1853  0004B4  EC4D  F005         	call	_ADC_GetConversion
  1854  0004B8  C060  F07E         	movff	?_ADC_GetConversion,_deltaV
  1855  0004BC  C061  F07F         	movff	?_ADC_GetConversion+1,_deltaV+1
  1856                           
  1857                           ;user.c: 67: if(deltaV > 292){
  1858  0004C0  0E25               	movlw	37
  1859  0004C2  0100               	movlb	0	; () banked
  1860  0004C4  5D7E               	subwf	_deltaV& (0+255),w,b
  1861  0004C6  0E01               	movlw	1
  1862  0004C8  0100               	movlb	0	; () banked
  1863  0004CA  597F               	subwfb	(_deltaV+1)& (0+255),w,b
  1864  0004CC  A0D8               	btfss	status,0,c
  1865  0004CE  D00A               	goto	l1762
  1866                           
  1867                           ; BSR set to: 0
  1868                           ;user.c: 68: vel_DX=762;
  1869  0004D0  0E02               	movlw	2
  1870  0004D2  0100               	movlb	0	; () banked
  1871  0004D4  6F89               	movwf	(_vel_DX+1)& (0+255),b
  1872  0004D6  0EFA               	movlw	250
  1873  0004D8  6F88               	movwf	_vel_DX& (0+255),b
  1874                           
  1875                           ;user.c: 69: vel_SX = 655;
  1876  0004DA  0E02               	movlw	2
  1877  0004DC  0100               	movlb	0	; () banked
  1878  0004DE  6F8B               	movwf	(_vel_SX+1)& (0+255),b
  1879  0004E0  0E8F               	movlw	143
  1880  0004E2  D02C               	goto	L9
  1881  0004E4                     l1762:
  1882                           
  1883                           ; BSR set to: 0
  1884  0004E4  0100               	movlb	0	; () banked
  1885  0004E6  517F               	movf	(_deltaV+1)& (0+255),w,b
  1886  0004E8  E118               	bnz	l1768
  1887  0004EA  0EFC               	movlw	252
  1888  0004EC  0100               	movlb	0	; () banked
  1889  0004EE  5D7E               	subwf	_deltaV& (0+255),w,b
  1890  0004F0  B0D8               	btfsc	status,0,c
  1891  0004F2  D013               	goto	l1768
  1892                           
  1893                           ; BSR set to: 0
  1894  0004F4  0100               	movlb	0	; () banked
  1895  0004F6  517F               	movf	(_deltaV+1)& (0+255),w,b
  1896  0004F8  E105               	bnz	u590
  1897  0004FA  0E0B               	movlw	11
  1898  0004FC  0100               	movlb	0	; () banked
  1899  0004FE  5D7E               	subwf	_deltaV& (0+255),w,b
  1900  000500  A0D8               	btfss	status,0,c
  1901  000502  D00B               	goto	l1768
  1902  000504                     u590:
  1903                           
  1904                           ; BSR set to: 0
  1905                           ;user.c: 71: vel_SX=750;
  1906  000504  0E02               	movlw	2
  1907  000506  0100               	movlb	0	; () banked
  1908  000508  6F8B               	movwf	(_vel_SX+1)& (0+255),b
  1909  00050A  0EEE               	movlw	238
  1910  00050C  6F8A               	movwf	_vel_SX& (0+255),b
  1911                           
  1912                           ;user.c: 72: vel_DX = 667;
  1913  00050E  0E02               	movlw	2
  1914  000510  0100               	movlb	0	; () banked
  1915  000512  6F89               	movwf	(_vel_DX+1)& (0+255),b
  1916  000514  0E9B               	movlw	155
  1917  000516  6F88               	movwf	_vel_DX& (0+255),b
  1918                           
  1919                           ;user.c: 73: }else if(deltaV > 10){
  1920  000518  D012               	goto	l1772
  1921  00051A                     l1768:
  1922                           
  1923                           ; BSR set to: 0
  1924  00051A  0100               	movlb	0	; () banked
  1925  00051C  517F               	movf	(_deltaV+1)& (0+255),w,b
  1926  00051E  E105               	bnz	u600
  1927  000520  0E0B               	movlw	11
  1928  000522  0100               	movlb	0	; () banked
  1929  000524  5D7E               	subwf	_deltaV& (0+255),w,b
  1930  000526  A0D8               	btfss	status,0,c
  1931  000528  D00A               	goto	l1772
  1932  00052A                     u600:
  1933                           
  1934                           ; BSR set to: 0
  1935                           ;user.c: 74: vel_DX = 712;
  1936  00052A  0E02               	movlw	2
  1937  00052C  0100               	movlb	0	; () banked
  1938  00052E  6F89               	movwf	(_vel_DX+1)& (0+255),b
  1939  000530  0EC8               	movlw	200
  1940  000532  6F88               	movwf	_vel_DX& (0+255),b
  1941                           
  1942                           ;user.c: 75: vel_SX = 700;
  1943  000534  0E02               	movlw	2
  1944  000536  0100               	movlb	0	; () banked
  1945  000538  6F8B               	movwf	(_vel_SX+1)& (0+255),b
  1946  00053A  0EBC               	movlw	188
  1947  00053C                     L9:
  1948  00053C  6F8A               	movwf	_vel_SX& (0+255),b
  1949  00053E                     l1772:
  1950                           
  1951                           ; BSR set to: 0
  1952                           ;user.c: 76: }
  1953                           ;user.c: 77: EPWM1_LoadDutyValue(vel_SX);
  1954  00053E  C08A  F060         	movff	_vel_SX,EPWM1_LoadDutyValue@dutyValue
  1955  000542  C08B  F061         	movff	_vel_SX+1,EPWM1_LoadDutyValue@dutyValue+1
  1956  000546  ECA9  F005         	call	_EPWM1_LoadDutyValue	;wreg free
  1957                           
  1958                           ;user.c: 78: EPWM2_LoadDutyValue(vel_DX);
  1959  00054A  C088  F060         	movff	_vel_DX,EPWM2_LoadDutyValue@dutyValue
  1960  00054E  C089  F061         	movff	_vel_DX+1,EPWM2_LoadDutyValue@dutyValue+1
  1961  000552  EC8B  F005         	call	_EPWM2_LoadDutyValue	;wreg free
  1962                           
  1963                           ;user.c: 82: for(uint8_t T = 0; T < 8; T++){
  1964  000556  0E00               	movlw	0
  1965  000558  0100               	movlb	0	; () banked
  1966  00055A  6F66               	movwf	seguiLinea@T& (0+255),b
  1967  00055C                     l1776:
  1968                           
  1969                           ; BSR set to: 0
  1970  00055C  0E07               	movlw	7
  1971  00055E  0100               	movlb	0	; () banked
  1972  000560  6566               	cpfsgt	seguiLinea@T& (0+255),b
  1973  000562  D001               	goto	l1780
  1974  000564  D017               	goto	l1790
  1975  000566                     l1780:
  1976                           
  1977                           ; BSR set to: 0
  1978                           ;user.c: 83: _delay((unsigned long)((1)*(64000000/4000.0)));
  1979  000566  0E15               	movlw	21
  1980  000568  0100               	movlb	0	; () banked
  1981  00056A  6F65               	movwf	??_seguiLinea& (0+255),b
  1982  00056C  0EC6               	movlw	198
  1983  00056E                     u1157:
  1984  00056E  2EE8               	decfsz	wreg,f,c
  1985  000570  D7FE               	goto	u1157
  1986  000572  2F65               	decfsz	??_seguiLinea& (0+255),f,b
  1987  000574  D7FC               	goto	u1157
  1988  000576  D000               	nop2	
  1989                           
  1990                           ;user.c: 84: if(ADC_GetConversion(channel_AN13)>=750){
  1991  000578  0E0D               	movlw	13
  1992  00057A  EC4D  F005         	call	_ADC_GetConversion
  1993  00057E  0EEE               	movlw	238
  1994  000580  0100               	movlb	0	; () banked
  1995  000582  5D60               	subwf	?_ADC_GetConversion& (0+255),w,b
  1996  000584  0E02               	movlw	2
  1997  000586  0100               	movlb	0	; () banked
  1998  000588  5961               	subwfb	(?_ADC_GetConversion+1)& (0+255),w,b
  1999  00058A  B0D8               	btfsc	status,0,c
  2000  00058C  D003               	goto	l1790
  2001                           
  2002                           ; BSR set to: 0
  2003                           
  2004                           ; BSR set to: 0
  2005                           
  2006                           ; BSR set to: 0
  2007                           ;user.c: 85: break;
  2008  00058E  0100               	movlb	0	; () banked
  2009  000590  2B66               	incf	seguiLinea@T& (0+255),f,b
  2010  000592  D7E4               	goto	l1776
  2011  000594                     l1790:
  2012  000594  0E0D               	movlw	13
  2013  000596  EC4D  F005         	call	_ADC_GetConversion
  2014  00059A  0EEE               	movlw	238
  2015  00059C  0100               	movlb	0	; () banked
  2016  00059E  5D60               	subwf	?_ADC_GetConversion& (0+255),w,b
  2017  0005A0  0E02               	movlw	2
  2018  0005A2  0100               	movlb	0	; () banked
  2019  0005A4  5961               	subwfb	(?_ADC_GetConversion+1)& (0+255),w,b
  2020  0005A6  B0D8               	btfsc	status,0,c
  2021  0005A8  0012               	return	
  2022  0005AA  D783               	goto	l1756
  2023  0005AC                     __end_of_seguiLinea:
  2024                           	opt stack 0
  2025                           tblptru	equ	0xFF8
  2026                           tblptrh	equ	0xFF7
  2027                           tblptrl	equ	0xFF6
  2028                           tablat	equ	0xFF5
  2029                           intcon	equ	0xFF2
  2030                           intcon2	equ	0xFF1
  2031                           intcon3	equ	0xFF0
  2032                           postinc0	equ	0xFEE
  2033                           wreg	equ	0xFE8
  2034                           postdec1	equ	0xFE5
  2035                           fsr1l	equ	0xFE1
  2036                           status	equ	0xFD8
  2037                           
  2038 ;; *************** function _EPWM2_LoadDutyValue *****************
  2039 ;; Defined at:
  2040 ;;		line 91 in file "mcc_generated_files/epwm2.c"
  2041 ;; Parameters:    Size  Location     Type
  2042 ;;  dutyValue       2    0[BANK0 ] unsigned int 
  2043 ;; Auto vars:     Size  Location     Type
  2044 ;;		None
  2045 ;; Return value:  Size  Location     Type
  2046 ;;		None               void
  2047 ;; Registers used:
  2048 ;;		wreg, status,2, status,0
  2049 ;; Tracked objects:
  2050 ;;		On entry : 0/0
  2051 ;;		On exit  : 0/0
  2052 ;;		Unchanged: 0/0
  2053 ;; Data sizes:     COMRAM   BANK0   BANK1   BANK2
  2054 ;;      Params:         0       2       0       0
  2055 ;;      Locals:         0       0       0       0
  2056 ;;      Temps:          0       2       0       0
  2057 ;;      Totals:         0       4       0       0
  2058 ;;Total ram usage:        4 bytes
  2059 ;; Hardware stack levels used:    1
  2060 ;; Hardware stack levels required when called:    3
  2061 ;; This function calls:
  2062 ;;		Nothing
  2063 ;; This function is called by:
  2064 ;;		_seguiLinea
  2065 ;;		_stopM
  2066 ;;		_main
  2067 ;; This function uses a non-reentrant model
  2068 ;;
  2069                           
  2070                           	psect	text5
  2071  000B16                     __ptext5:
  2072                           	opt stack 0
  2073  000B16                     _EPWM2_LoadDutyValue:
  2074                           	opt stack 26
  2075                           
  2076                           ;epwm2.c: 94: CCPR2L = ((dutyValue & 0x03FC)>>2);
  2077                           
  2078                           ; BSR set to: 0
  2079                           ;incstack = 0
  2080  000B16  C060  F062         	movff	EPWM2_LoadDutyValue@dutyValue,??_EPWM2_LoadDutyValue
  2081  000B1A  C061  F063         	movff	EPWM2_LoadDutyValue@dutyValue+1,??_EPWM2_LoadDutyValue+1
  2082  000B1E  0100               	movlb	0	; () banked
  2083  000B20  90D8               	bcf	status,0,c
  2084  000B22  3363               	rrcf	(??_EPWM2_LoadDutyValue+1)& (0+255),f,b
  2085  000B24  3362               	rrcf	??_EPWM2_LoadDutyValue& (0+255),f,b
  2086  000B26  0100               	movlb	0	; () banked
  2087  000B28  90D8               	bcf	status,0,c
  2088  000B2A  3363               	rrcf	(??_EPWM2_LoadDutyValue+1)& (0+255),f,b
  2089  000B2C  3362               	rrcf	??_EPWM2_LoadDutyValue& (0+255),f,b
  2090  000B2E  0100               	movlb	0	; () banked
  2091  000B30  5162               	movf	??_EPWM2_LoadDutyValue& (0+255),w,b
  2092  000B32  6E67               	movwf	3943,c	;volatile
  2093                           
  2094                           ;epwm2.c: 97: CCP2CON = (CCP2CON & 0xCF) | ((dutyValue & 0x0003)<<4);
  2095  000B34  C060  F062         	movff	EPWM2_LoadDutyValue@dutyValue,??_EPWM2_LoadDutyValue
  2096  000B38  0E03               	movlw	3
  2097  000B3A  0100               	movlb	0	; () banked
  2098  000B3C  1762               	andwf	??_EPWM2_LoadDutyValue& (0+255),f,b
  2099  000B3E  0100               	movlb	0	; () banked
  2100  000B40  3B62               	swapf	??_EPWM2_LoadDutyValue& (0+255),f,b
  2101  000B42  0EF0               	movlw	240
  2102  000B44  1762               	andwf	??_EPWM2_LoadDutyValue& (0+255),f,b
  2103  000B46  5066               	movf	3942,w,c	;volatile
  2104  000B48  0BCF               	andlw	207
  2105  000B4A  0100               	movlb	0	; () banked
  2106  000B4C  1162               	iorwf	??_EPWM2_LoadDutyValue& (0+255),w,b
  2107  000B4E  6E66               	movwf	3942,c	;volatile
  2108                           
  2109                           ; BSR set to: 0
  2110  000B50  0012               	return		;funcret
  2111  000B52                     __end_of_EPWM2_LoadDutyValue:
  2112                           	opt stack 0
  2113                           tblptru	equ	0xFF8
  2114                           tblptrh	equ	0xFF7
  2115                           tblptrl	equ	0xFF6
  2116                           tablat	equ	0xFF5
  2117                           intcon	equ	0xFF2
  2118                           intcon2	equ	0xFF1
  2119                           intcon3	equ	0xFF0
  2120                           postinc0	equ	0xFEE
  2121                           wreg	equ	0xFE8
  2122                           postdec1	equ	0xFE5
  2123                           fsr1l	equ	0xFE1
  2124                           status	equ	0xFD8
  2125                           
  2126 ;; *************** function _EPWM1_LoadDutyValue *****************
  2127 ;; Defined at:
  2128 ;;		line 91 in file "mcc_generated_files/epwm1.c"
  2129 ;; Parameters:    Size  Location     Type
  2130 ;;  dutyValue       2    0[BANK0 ] unsigned int 
  2131 ;; Auto vars:     Size  Location     Type
  2132 ;;		None
  2133 ;; Return value:  Size  Location     Type
  2134 ;;		None               void
  2135 ;; Registers used:
  2136 ;;		wreg, status,2, status,0
  2137 ;; Tracked objects:
  2138 ;;		On entry : 0/0
  2139 ;;		On exit  : 0/0
  2140 ;;		Unchanged: 0/0
  2141 ;; Data sizes:     COMRAM   BANK0   BANK1   BANK2
  2142 ;;      Params:         0       2       0       0
  2143 ;;      Locals:         0       0       0       0
  2144 ;;      Temps:          0       2       0       0
  2145 ;;      Totals:         0       4       0       0
  2146 ;;Total ram usage:        4 bytes
  2147 ;; Hardware stack levels used:    1
  2148 ;; Hardware stack levels required when called:    3
  2149 ;; This function calls:
  2150 ;;		Nothing
  2151 ;; This function is called by:
  2152 ;;		_seguiLinea
  2153 ;;		_stopM
  2154 ;;		_main
  2155 ;; This function uses a non-reentrant model
  2156 ;;
  2157                           
  2158                           	psect	text6
  2159  000B52                     __ptext6:
  2160                           	opt stack 0
  2161  000B52                     _EPWM1_LoadDutyValue:
  2162                           	opt stack 26
  2163                           
  2164                           ;epwm1.c: 94: CCPR1L = ((dutyValue & 0x03FC)>>2);
  2165                           
  2166                           ; BSR set to: 0
  2167                           ;incstack = 0
  2168  000B52  C060  F062         	movff	EPWM1_LoadDutyValue@dutyValue,??_EPWM1_LoadDutyValue
  2169  000B56  C061  F063         	movff	EPWM1_LoadDutyValue@dutyValue+1,??_EPWM1_LoadDutyValue+1
  2170  000B5A  0100               	movlb	0	; () banked
  2171  000B5C  90D8               	bcf	status,0,c
  2172  000B5E  3363               	rrcf	(??_EPWM1_LoadDutyValue+1)& (0+255),f,b
  2173  000B60  3362               	rrcf	??_EPWM1_LoadDutyValue& (0+255),f,b
  2174  000B62  0100               	movlb	0	; () banked
  2175  000B64  90D8               	bcf	status,0,c
  2176  000B66  3363               	rrcf	(??_EPWM1_LoadDutyValue+1)& (0+255),f,b
  2177  000B68  3362               	rrcf	??_EPWM1_LoadDutyValue& (0+255),f,b
  2178  000B6A  0100               	movlb	0	; () banked
  2179  000B6C  5162               	movf	??_EPWM1_LoadDutyValue& (0+255),w,b
  2180  000B6E  6EBE               	movwf	4030,c	;volatile
  2181                           
  2182                           ;epwm1.c: 97: CCP1CON = (CCP1CON & 0xCF) | ((dutyValue & 0x0003)<<4);
  2183  000B70  C060  F062         	movff	EPWM1_LoadDutyValue@dutyValue,??_EPWM1_LoadDutyValue
  2184  000B74  0E03               	movlw	3
  2185  000B76  0100               	movlb	0	; () banked
  2186  000B78  1762               	andwf	??_EPWM1_LoadDutyValue& (0+255),f,b
  2187  000B7A  0100               	movlb	0	; () banked
  2188  000B7C  3B62               	swapf	??_EPWM1_LoadDutyValue& (0+255),f,b
  2189  000B7E  0EF0               	movlw	240
  2190  000B80  1762               	andwf	??_EPWM1_LoadDutyValue& (0+255),f,b
  2191  000B82  50BD               	movf	4029,w,c	;volatile
  2192  000B84  0BCF               	andlw	207
  2193  000B86  0100               	movlb	0	; () banked
  2194  000B88  1162               	iorwf	??_EPWM1_LoadDutyValue& (0+255),w,b
  2195  000B8A  6EBD               	movwf	4029,c	;volatile
  2196                           
  2197                           ; BSR set to: 0
  2198  000B8C  0012               	return		;funcret
  2199  000B8E                     __end_of_EPWM1_LoadDutyValue:
  2200                           	opt stack 0
  2201                           tblptru	equ	0xFF8
  2202                           tblptrh	equ	0xFF7
  2203                           tblptrl	equ	0xFF6
  2204                           tablat	equ	0xFF5
  2205                           intcon	equ	0xFF2
  2206                           intcon2	equ	0xFF1
  2207                           intcon3	equ	0xFF0
  2208                           postinc0	equ	0xFEE
  2209                           wreg	equ	0xFE8
  2210                           postdec1	equ	0xFE5
  2211                           fsr1l	equ	0xFE1
  2212                           status	equ	0xFD8
  2213                           
  2214 ;; *************** function _controllaColore *****************
  2215 ;; Defined at:
  2216 ;;		line 145 in file "user.c"
  2217 ;; Parameters:    Size  Location     Type
  2218 ;;		None
  2219 ;; Auto vars:     Size  Location     Type
  2220 ;;		None
  2221 ;; Return value:  Size  Location     Type
  2222 ;;		None               void
  2223 ;; Registers used:
  2224 ;;		wreg, status,2, status,0, cstack
  2225 ;; Tracked objects:
  2226 ;;		On entry : 0/0
  2227 ;;		On exit  : 0/0
  2228 ;;		Unchanged: 0/0
  2229 ;; Data sizes:     COMRAM   BANK0   BANK1   BANK2
  2230 ;;      Params:         0       0       0       0
  2231 ;;      Locals:         0       0       0       0
  2232 ;;      Temps:          0       1       0       0
  2233 ;;      Totals:         0       1       0       0
  2234 ;;Total ram usage:        1 bytes
  2235 ;; Hardware stack levels used:    1
  2236 ;; Hardware stack levels required when called:    5
  2237 ;; This function calls:
  2238 ;;		_ADC_GetConversion
  2239 ;;		_delay_mS
  2240 ;; This function is called by:
  2241 ;;		_main
  2242 ;; This function uses a non-reentrant model
  2243 ;;
  2244                           
  2245                           	psect	text7
  2246  0005AC                     __ptext7:
  2247                           	opt stack 0
  2248  0005AC                     _controllaColore:
  2249                           	opt stack 25
  2250                           
  2251                           ;user.c: 147: LATA0 = 0;
  2252                           
  2253                           ; BSR set to: 0
  2254                           ;incstack = 0
  2255  0005AC  9089               	bcf	3977,0,c	;volatile
  2256                           
  2257                           ;user.c: 148: LATA1 = 1;
  2258  0005AE  8289               	bsf	3977,1,c	;volatile
  2259                           
  2260                           ;user.c: 149: LATA4 = 0;
  2261  0005B0  9889               	bcf	3977,4,c	;volatile
  2262                           
  2263                           ;user.c: 151: LATA2 = 0;
  2264  0005B2  9489               	bcf	3977,2,c	;volatile
  2265                           
  2266                           ;user.c: 152: LATA3 = 0;
  2267  0005B4  9689               	bcf	3977,3,c	;volatile
  2268                           
  2269                           ;user.c: 154: delay_mS(500);
  2270  0005B6  0E01               	movlw	1
  2271  0005B8  0100               	movlb	0	; () banked
  2272  0005BA  6F6D               	movwf	(delay_mS@m_sec+1)& (0+255),b
  2273  0005BC  0EF4               	movlw	244
  2274  0005BE  6F6C               	movwf	delay_mS@m_sec& (0+255),b
  2275  0005C0  ECFD  F004         	call	_delay_mS	;wreg free
  2276                           
  2277                           ;user.c: 155: rossoPC = ADC_GetConversion(channel_AN4);
  2278  0005C4  0E04               	movlw	4
  2279  0005C6  EC4D  F005         	call	_ADC_GetConversion
  2280  0005CA  C060  F082         	movff	?_ADC_GetConversion,_rossoPC
  2281  0005CE  C061  F083         	movff	?_ADC_GetConversion+1,_rossoPC+1
  2282                           
  2283                           ;user.c: 158: LATA2 = 0;
  2284  0005D2  9489               	bcf	3977,2,c	;volatile
  2285                           
  2286                           ;user.c: 159: LATA3 = 1;
  2287  0005D4  8689               	bsf	3977,3,c	;volatile
  2288                           
  2289                           ;user.c: 160: delay_mS(500);
  2290  0005D6  0E01               	movlw	1
  2291  0005D8  0100               	movlb	0	; () banked
  2292  0005DA  6F6D               	movwf	(delay_mS@m_sec+1)& (0+255),b
  2293  0005DC  0EF4               	movlw	244
  2294  0005DE  6F6C               	movwf	delay_mS@m_sec& (0+255),b
  2295  0005E0  ECFD  F004         	call	_delay_mS	;wreg free
  2296                           
  2297                           ;user.c: 161: bluPC = ADC_GetConversion(channel_AN4);
  2298  0005E4  0E04               	movlw	4
  2299  0005E6  EC4D  F005         	call	_ADC_GetConversion
  2300  0005EA  C060  F07C         	movff	?_ADC_GetConversion,_bluPC
  2301  0005EE  C061  F07D         	movff	?_ADC_GetConversion+1,_bluPC+1
  2302                           
  2303                           ;user.c: 164: LATA2 = 1;
  2304  0005F2  8489               	bsf	3977,2,c	;volatile
  2305                           
  2306                           ;user.c: 165: LATA3 = 1;
  2307  0005F4  8689               	bsf	3977,3,c	;volatile
  2308                           
  2309                           ;user.c: 166: delay_mS(500);
  2310  0005F6  0E01               	movlw	1
  2311  0005F8  0100               	movlb	0	; () banked
  2312  0005FA  6F6D               	movwf	(delay_mS@m_sec+1)& (0+255),b
  2313  0005FC  0EF4               	movlw	244
  2314  0005FE  6F6C               	movwf	delay_mS@m_sec& (0+255),b
  2315  000600  ECFD  F004         	call	_delay_mS	;wreg free
  2316                           
  2317                           ;user.c: 167: verdePC = ADC_GetConversion(channel_AN4);
  2318  000604  0E04               	movlw	4
  2319  000606  EC4D  F005         	call	_ADC_GetConversion
  2320  00060A  C060  F084         	movff	?_ADC_GetConversion,_verdePC
  2321  00060E  C061  F085         	movff	?_ADC_GetConversion+1,_verdePC+1
  2322                           
  2323                           ;user.c: 170: LATA4 = 1;
  2324  000612  8889               	bsf	3977,4,c	;volatile
  2325                           
  2326                           ;user.c: 173: if(rossoPC >= bluPC){
  2327  000614  0100               	movlb	0	; () banked
  2328  000616  517C               	movf	_bluPC& (0+255),w,b
  2329  000618  0100               	movlb	0	; () banked
  2330  00061A  5D82               	subwf	_rossoPC& (0+255),w,b
  2331  00061C  0100               	movlb	0	; () banked
  2332  00061E  5183               	movf	(_rossoPC+1)& (0+255),w,b
  2333  000620  0A80               	xorlw	128
  2334  000622  0100               	movlb	0	; () banked
  2335  000624  6F6F               	movwf	??_controllaColore& (0+255),b
  2336  000626  0100               	movlb	0	; () banked
  2337  000628  517D               	movf	(_bluPC+1)& (0+255),w,b
  2338  00062A  0A80               	xorlw	128
  2339  00062C  0100               	movlb	0	; () banked
  2340  00062E  596F               	subwfb	??_controllaColore& (0+255),w,b
  2341  000630  A0D8               	btfss	status,0,c
  2342  000632  D018               	goto	l1836
  2343                           
  2344                           ; BSR set to: 0
  2345                           ;user.c: 174: if(rossoPC >= verdePC) colore = ROSSO; else colore = VERDE;
  2346  000634  0100               	movlb	0	; () banked
  2347  000636  5184               	movf	_verdePC& (0+255),w,b
  2348  000638  0100               	movlb	0	; () banked
  2349  00063A  5D82               	subwf	_rossoPC& (0+255),w,b
  2350  00063C  0100               	movlb	0	; () banked
  2351  00063E  5183               	movf	(_rossoPC+1)& (0+255),w,b
  2352  000640  0A80               	xorlw	128
  2353  000642  0100               	movlb	0	; () banked
  2354  000644  6F6F               	movwf	??_controllaColore& (0+255),b
  2355  000646  0100               	movlb	0	; () banked
  2356  000648  5185               	movf	(_verdePC+1)& (0+255),w,b
  2357  00064A  0A80               	xorlw	128
  2358  00064C  0100               	movlb	0	; () banked
  2359  00064E  596F               	subwfb	??_controllaColore& (0+255),w,b
  2360  000650  A0D8               	btfss	status,0,c
  2361  000652  D004               	goto	l1834
  2362                           
  2363                           ; BSR set to: 0
  2364  000654  0E00               	movlw	0
  2365  000656  0100               	movlb	0	; () banked
  2366  000658  6F86               	movwf	_colore& (0+255),b
  2367  00065A  0012               	return	
  2368  00065C                     l1834:
  2369                           
  2370                           ; BSR set to: 0
  2371  00065C  0E02               	movlw	2
  2372  00065E  0100               	movlb	0	; () banked
  2373  000660  6F86               	movwf	_colore& (0+255),b
  2374                           
  2375                           ; BSR set to: 0
  2376                           ;user.c: 175: }else if(bluPC>=verdePC){
  2377  000662  0012               	return	
  2378  000664                     l1836:
  2379                           
  2380                           ; BSR set to: 0
  2381  000664  0100               	movlb	0	; () banked
  2382  000666  5184               	movf	_verdePC& (0+255),w,b
  2383  000668  0100               	movlb	0	; () banked
  2384  00066A  5D7C               	subwf	_bluPC& (0+255),w,b
  2385  00066C  0100               	movlb	0	; () banked
  2386  00066E  517D               	movf	(_bluPC+1)& (0+255),w,b
  2387  000670  0A80               	xorlw	128
  2388  000672  0100               	movlb	0	; () banked
  2389  000674  6F6F               	movwf	??_controllaColore& (0+255),b
  2390  000676  0100               	movlb	0	; () banked
  2391  000678  5185               	movf	(_verdePC+1)& (0+255),w,b
  2392  00067A  0A80               	xorlw	128
  2393  00067C  0100               	movlb	0	; () banked
  2394  00067E  596F               	subwfb	??_controllaColore& (0+255),w,b
  2395  000680  A0D8               	btfss	status,0,c
  2396  000682  D004               	goto	l1840
  2397                           
  2398                           ; BSR set to: 0
  2399                           ;user.c: 176: colore = BLU;
  2400  000684  0E01               	movlw	1
  2401  000686  0100               	movlb	0	; () banked
  2402  000688  6F86               	movwf	_colore& (0+255),b
  2403                           
  2404                           ;user.c: 177: }else {
  2405  00068A  0012               	return	
  2406  00068C                     l1840:
  2407                           
  2408                           ; BSR set to: 0
  2409                           ;user.c: 178: colore = VERDE;
  2410  00068C  0E02               	movlw	2
  2411  00068E  0100               	movlb	0	; () banked
  2412  000690  6F86               	movwf	_colore& (0+255),b
  2413                           
  2414                           ; BSR set to: 0
  2415  000692  0012               	return	
  2416  000694                     __end_of_controllaColore:
  2417                           	opt stack 0
  2418                           tblptru	equ	0xFF8
  2419                           tblptrh	equ	0xFF7
  2420                           tblptrl	equ	0xFF6
  2421                           tablat	equ	0xFF5
  2422                           intcon	equ	0xFF2
  2423                           intcon2	equ	0xFF1
  2424                           intcon3	equ	0xFF0
  2425                           postinc0	equ	0xFEE
  2426                           wreg	equ	0xFE8
  2427                           postdec1	equ	0xFE5
  2428                           fsr1l	equ	0xFE1
  2429                           status	equ	0xFD8
  2430                           
  2431 ;; *************** function _delay_mS *****************
  2432 ;; Defined at:
  2433 ;;		line 288 in file "user.c"
  2434 ;; Parameters:    Size  Location     Type
  2435 ;;  m_sec           2   12[BANK0 ] unsigned int 
  2436 ;; Auto vars:     Size  Location     Type
  2437 ;;		None
  2438 ;; Return value:  Size  Location     Type
  2439 ;;		None               void
  2440 ;; Registers used:
  2441 ;;		wreg, status,2, status,0, cstack
  2442 ;; Tracked objects:
  2443 ;;		On entry : 0/0
  2444 ;;		On exit  : 0/0
  2445 ;;		Unchanged: 0/0
  2446 ;; Data sizes:     COMRAM   BANK0   BANK1   BANK2
  2447 ;;      Params:         0       2       0       0
  2448 ;;      Locals:         0       0       0       0
  2449 ;;      Temps:          0       1       0       0
  2450 ;;      Totals:         0       3       0       0
  2451 ;;Total ram usage:        3 bytes
  2452 ;; Hardware stack levels used:    1
  2453 ;; Hardware stack levels required when called:    4
  2454 ;; This function calls:
  2455 ;;		___lwdiv
  2456 ;;		_checkBatt
  2457 ;; This function is called by:
  2458 ;;		_taratura
  2459 ;;		_controllaColore
  2460 ;;		_main
  2461 ;; This function uses a non-reentrant model
  2462 ;;
  2463                           
  2464                           	psect	text8
  2465  0009FA                     __ptext8:
  2466                           	opt stack 0
  2467  0009FA                     _delay_mS:
  2468                           	opt stack 25
  2469                           
  2470                           ;user.c: 289: msec_10 = m_sec/10;
  2471                           
  2472                           ; BSR set to: 0
  2473                           ;incstack = 0
  2474  0009FA  C06C  F065         	movff	delay_mS@m_sec,___lwdiv@dividend
  2475  0009FE  C06D  F066         	movff	delay_mS@m_sec+1,___lwdiv@dividend+1
  2476  000A02  0E00               	movlw	0
  2477  000A04  0100               	movlb	0	; () banked
  2478  000A06  6F68               	movwf	(___lwdiv@divisor+1)& (0+255),b
  2479  000A08  0E0A               	movlw	10
  2480  000A0A  6F67               	movwf	___lwdiv@divisor& (0+255),b
  2481  000A0C  ECC1  F004         	call	___lwdiv	;wreg free
  2482  000A10  C065  F080         	movff	?___lwdiv,_msec_10
  2483  000A14  C066  F081         	movff	?___lwdiv+1,_msec_10+1
  2484                           
  2485                           ;user.c: 290: for(T = 0; T<=msec_10; T++){
  2486  000A18  0E00               	movlw	0
  2487  000A1A  0100               	movlb	0	; () banked
  2488  000A1C  6F7B               	movwf	(_T+1)& (0+255),b
  2489  000A1E  0E00               	movlw	0
  2490  000A20  6F7A               	movwf	_T& (0+255),b
  2491  000A22  D00D               	goto	l1742
  2492  000A24                     l1736:
  2493                           
  2494                           ; BSR set to: 0
  2495                           ;user.c: 291: _delay((unsigned long)((10)*(64000000/4000.0)));
  2496  000A24  0ED0               	movlw	208
  2497  000A26  0100               	movlb	0	; () banked
  2498  000A28  6F6E               	movwf	??_delay_mS& (0+255),b
  2499  000A2A  0ECA               	movlw	202
  2500  000A2C                     u1167:
  2501  000A2C  2EE8               	decfsz	wreg,f,c
  2502  000A2E  D7FE               	goto	u1167
  2503  000A30  2F6E               	decfsz	??_delay_mS& (0+255),f,b
  2504  000A32  D7FC               	goto	u1167
  2505                           
  2506                           ;user.c: 292: checkBatt();
  2507  000A34  EC66  F006         	call	_checkBatt	;wreg free
  2508  000A38  0100               	movlb	0	; () banked
  2509  000A3A  4B7A               	infsnz	_T& (0+255),f,b
  2510  000A3C  2B7B               	incf	(_T+1)& (0+255),f,b
  2511  000A3E                     l1742:
  2512                           
  2513                           ; BSR set to: 0
  2514  000A3E  0100               	movlb	0	; () banked
  2515  000A40  517A               	movf	_T& (0+255),w,b
  2516  000A42  0100               	movlb	0	; () banked
  2517  000A44  5D80               	subwf	_msec_10& (0+255),w,b
  2518  000A46  0100               	movlb	0	; () banked
  2519  000A48  517B               	movf	(_T+1)& (0+255),w,b
  2520  000A4A  0100               	movlb	0	; () banked
  2521  000A4C  5981               	subwfb	(_msec_10+1)& (0+255),w,b
  2522  000A4E  A0D8               	btfss	status,0,c
  2523  000A50  0012               	return	
  2524  000A52  D7E8               	goto	l1736
  2525  000A54                     __end_of_delay_mS:
  2526                           	opt stack 0
  2527                           tblptru	equ	0xFF8
  2528                           tblptrh	equ	0xFF7
  2529                           tblptrl	equ	0xFF6
  2530                           tablat	equ	0xFF5
  2531                           intcon	equ	0xFF2
  2532                           intcon2	equ	0xFF1
  2533                           intcon3	equ	0xFF0
  2534                           postinc0	equ	0xFEE
  2535                           wreg	equ	0xFE8
  2536                           postdec1	equ	0xFE5
  2537                           fsr1l	equ	0xFE1
  2538                           status	equ	0xFD8
  2539                           
  2540 ;; *************** function _checkBatt *****************
  2541 ;; Defined at:
  2542 ;;		line 203 in file "user.c"
  2543 ;; Parameters:    Size  Location     Type
  2544 ;;		None
  2545 ;; Auto vars:     Size  Location     Type
  2546 ;;		None
  2547 ;; Return value:  Size  Location     Type
  2548 ;;		None               void
  2549 ;; Registers used:
  2550 ;;		None
  2551 ;; Tracked objects:
  2552 ;;		On entry : 0/0
  2553 ;;		On exit  : 0/0
  2554 ;;		Unchanged: 0/0
  2555 ;; Data sizes:     COMRAM   BANK0   BANK1   BANK2
  2556 ;;      Params:         0       0       0       0
  2557 ;;      Locals:         0       0       0       0
  2558 ;;      Temps:          0       0       0       0
  2559 ;;      Totals:         0       0       0       0
  2560 ;;Total ram usage:        0 bytes
  2561 ;; Hardware stack levels used:    1
  2562 ;; Hardware stack levels required when called:    3
  2563 ;; This function calls:
  2564 ;;		Nothing
  2565 ;; This function is called by:
  2566 ;;		_delay_mS
  2567 ;;		_main
  2568 ;; This function uses a non-reentrant model
  2569 ;;
  2570                           
  2571                           	psect	text9
  2572  000CCC                     __ptext9:
  2573                           	opt stack 0
  2574  000CCC                     _checkBatt:
  2575                           	opt stack 25
  2576                           
  2577                           ; BSR set to: 0
  2578                           ;incstack = 0
  2579  000CCC  0012               	return		;funcret
  2580  000CCE                     __end_of_checkBatt:
  2581                           	opt stack 0
  2582                           tblptru	equ	0xFF8
  2583                           tblptrh	equ	0xFF7
  2584                           tblptrl	equ	0xFF6
  2585                           tablat	equ	0xFF5
  2586                           intcon	equ	0xFF2
  2587                           intcon2	equ	0xFF1
  2588                           intcon3	equ	0xFF0
  2589                           postinc0	equ	0xFEE
  2590                           wreg	equ	0xFE8
  2591                           postdec1	equ	0xFE5
  2592                           fsr1l	equ	0xFE1
  2593                           status	equ	0xFD8
  2594                           
  2595 ;; *************** function ___lwdiv *****************
  2596 ;; Defined at:
  2597 ;;		line 8 in file "C:\Program Files (x86)\Microchip\xc8\v1.35\sources\common\lwdiv.c"
  2598 ;; Parameters:    Size  Location     Type
  2599 ;;  dividend        2    5[BANK0 ] unsigned int 
  2600 ;;  divisor         2    7[BANK0 ] unsigned int 
  2601 ;; Auto vars:     Size  Location     Type
  2602 ;;  quotient        2    9[BANK0 ] unsigned int 
  2603 ;;  counter         1   11[BANK0 ] unsigned char 
  2604 ;; Return value:  Size  Location     Type
  2605 ;;                  2    5[BANK0 ] unsigned int 
  2606 ;; Registers used:
  2607 ;;		wreg, status,2, status,0
  2608 ;; Tracked objects:
  2609 ;;		On entry : 0/0
  2610 ;;		On exit  : 0/0
  2611 ;;		Unchanged: 0/0
  2612 ;; Data sizes:     COMRAM   BANK0   BANK1   BANK2
  2613 ;;      Params:         0       4       0       0
  2614 ;;      Locals:         0       3       0       0
  2615 ;;      Temps:          0       0       0       0
  2616 ;;      Totals:         0       7       0       0
  2617 ;;Total ram usage:        7 bytes
  2618 ;; Hardware stack levels used:    1
  2619 ;; Hardware stack levels required when called:    3
  2620 ;; This function calls:
  2621 ;;		Nothing
  2622 ;; This function is called by:
  2623 ;;		_taratura
  2624 ;;		_delay_mS
  2625 ;; This function uses a non-reentrant model
  2626 ;;
  2627                           
  2628                           	psect	text10
  2629  000982                     __ptext10:
  2630                           	opt stack 0
  2631  000982                     ___lwdiv:
  2632                           	opt stack 25
  2633                           
  2634                           ;incstack = 0
  2635  000982  0E00               	movlw	0
  2636  000984  0100               	movlb	0	; () banked
  2637  000986  6F6A               	movwf	(___lwdiv@quotient+1)& (0+255),b
  2638  000988  0E00               	movlw	0
  2639  00098A  6F69               	movwf	___lwdiv@quotient& (0+255),b
  2640                           
  2641                           ; BSR set to: 0
  2642  00098C  0100               	movlb	0	; () banked
  2643  00098E  5167               	movf	___lwdiv@divisor& (0+255),w,b
  2644  000990  0100               	movlb	0	; () banked
  2645  000992  1168               	iorwf	(___lwdiv@divisor+1)& (0+255),w,b
  2646  000994  B4D8               	btfsc	status,2,c
  2647  000996  D02C               	goto	l901
  2648                           
  2649                           ; BSR set to: 0
  2650  000998  0E01               	movlw	1
  2651  00099A  0100               	movlb	0	; () banked
  2652  00099C  6F6B               	movwf	___lwdiv@counter& (0+255),b
  2653  00099E  D006               	goto	l1672
  2654  0009A0                     l1670:
  2655                           
  2656                           ; BSR set to: 0
  2657  0009A0  0100               	movlb	0	; () banked
  2658  0009A2  90D8               	bcf	status,0,c
  2659  0009A4  3767               	rlcf	___lwdiv@divisor& (0+255),f,b
  2660  0009A6  3768               	rlcf	(___lwdiv@divisor+1)& (0+255),f,b
  2661  0009A8  0100               	movlb	0	; () banked
  2662  0009AA  2B6B               	incf	___lwdiv@counter& (0+255),f,b
  2663  0009AC                     l1672:
  2664                           
  2665                           ; BSR set to: 0
  2666  0009AC  0100               	movlb	0	; () banked
  2667  0009AE  AF68               	btfss	(___lwdiv@divisor+1)& (0+255),7,b
  2668  0009B0  D7F7               	goto	l1670
  2669  0009B2                     l1674:
  2670                           
  2671                           ; BSR set to: 0
  2672  0009B2  0100               	movlb	0	; () banked
  2673  0009B4  90D8               	bcf	status,0,c
  2674  0009B6  3769               	rlcf	___lwdiv@quotient& (0+255),f,b
  2675  0009B8  376A               	rlcf	(___lwdiv@quotient+1)& (0+255),f,b
  2676                           
  2677                           ; BSR set to: 0
  2678  0009BA  0100               	movlb	0	; () banked
  2679  0009BC  5167               	movf	___lwdiv@divisor& (0+255),w,b
  2680  0009BE  0100               	movlb	0	; () banked
  2681  0009C0  5D65               	subwf	___lwdiv@dividend& (0+255),w,b
  2682  0009C2  0100               	movlb	0	; () banked
  2683  0009C4  5168               	movf	(___lwdiv@divisor+1)& (0+255),w,b
  2684  0009C6  0100               	movlb	0	; () banked
  2685  0009C8  5966               	subwfb	(___lwdiv@dividend+1)& (0+255),w,b
  2686  0009CA  A0D8               	btfss	status,0,c
  2687  0009CC  D00A               	goto	l1682
  2688                           
  2689                           ; BSR set to: 0
  2690  0009CE  0100               	movlb	0	; () banked
  2691  0009D0  5167               	movf	___lwdiv@divisor& (0+255),w,b
  2692  0009D2  0100               	movlb	0	; () banked
  2693  0009D4  5F65               	subwf	___lwdiv@dividend& (0+255),f,b
  2694  0009D6  0100               	movlb	0	; () banked
  2695  0009D8  5168               	movf	(___lwdiv@divisor+1)& (0+255),w,b
  2696  0009DA  0100               	movlb	0	; () banked
  2697  0009DC  5B66               	subwfb	(___lwdiv@dividend+1)& (0+255),f,b
  2698                           
  2699                           ; BSR set to: 0
  2700  0009DE  0100               	movlb	0	; () banked
  2701  0009E0  8169               	bsf	___lwdiv@quotient& (0+255),0,b
  2702  0009E2                     l1682:
  2703                           
  2704                           ; BSR set to: 0
  2705  0009E2  0100               	movlb	0	; () banked
  2706  0009E4  90D8               	bcf	status,0,c
  2707  0009E6  3368               	rrcf	(___lwdiv@divisor+1)& (0+255),f,b
  2708  0009E8  3367               	rrcf	___lwdiv@divisor& (0+255),f,b
  2709                           
  2710                           ; BSR set to: 0
  2711  0009EA  0100               	movlb	0	; () banked
  2712  0009EC  2F6B               	decfsz	___lwdiv@counter& (0+255),f,b
  2713  0009EE  D7E1               	goto	l1674
  2714  0009F0                     l901:
  2715                           
  2716                           ; BSR set to: 0
  2717  0009F0  C069  F065         	movff	___lwdiv@quotient,?___lwdiv
  2718  0009F4  C06A  F066         	movff	___lwdiv@quotient+1,?___lwdiv+1
  2719                           
  2720                           ; BSR set to: 0
  2721  0009F8  0012               	return		;funcret
  2722  0009FA                     __end_of___lwdiv:
  2723                           	opt stack 0
  2724                           tblptru	equ	0xFF8
  2725                           tblptrh	equ	0xFF7
  2726                           tblptrl	equ	0xFF6
  2727                           tablat	equ	0xFF5
  2728                           intcon	equ	0xFF2
  2729                           intcon2	equ	0xFF1
  2730                           intcon3	equ	0xFF0
  2731                           postinc0	equ	0xFEE
  2732                           wreg	equ	0xFE8
  2733                           postdec1	equ	0xFE5
  2734                           fsr1l	equ	0xFE1
  2735                           status	equ	0xFD8
  2736                           
  2737 ;; *************** function _ADC_GetConversion *****************
  2738 ;; Defined at:
  2739 ;;		line 105 in file "mcc_generated_files/adc.c"
  2740 ;; Parameters:    Size  Location     Type
  2741 ;;  channel         1    wreg     enum E7523
  2742 ;; Auto vars:     Size  Location     Type
  2743 ;;  channel         1    4[BANK0 ] enum E7523
  2744 ;; Return value:  Size  Location     Type
  2745 ;;                  2    0[BANK0 ] unsigned int 
  2746 ;; Registers used:
  2747 ;;		wreg, status,2, status,0
  2748 ;; Tracked objects:
  2749 ;;		On entry : 0/0
  2750 ;;		On exit  : 0/0
  2751 ;;		Unchanged: 0/0
  2752 ;; Data sizes:     COMRAM   BANK0   BANK1   BANK2
  2753 ;;      Params:         0       2       0       0
  2754 ;;      Locals:         0       1       0       0
  2755 ;;      Temps:          0       2       0       0
  2756 ;;      Totals:         0       5       0       0
  2757 ;;Total ram usage:        5 bytes
  2758 ;; Hardware stack levels used:    1
  2759 ;; Hardware stack levels required when called:    3
  2760 ;; This function calls:
  2761 ;;		Nothing
  2762 ;; This function is called by:
  2763 ;;		_seguiLinea
  2764 ;;		_taratura
  2765 ;;		_controllaColore
  2766 ;;		_main
  2767 ;; This function uses a non-reentrant model
  2768 ;;
  2769                           
  2770                           	psect	text11
  2771  000A9A                     __ptext11:
  2772                           	opt stack 0
  2773  000A9A                     _ADC_GetConversion:
  2774                           	opt stack 26
  2775                           
  2776                           ; BSR set to: 0
  2777                           ;incstack = 0
  2778                           ;ADC_GetConversion@channel stored from wreg
  2779  000A9A  0100               	movlb	0	; () banked
  2780  000A9C  6F64               	movwf	ADC_GetConversion@channel& (0+255),b
  2781                           
  2782                           ;adc.c: 108: ADCON0bits.CHS = channel;
  2783  000A9E  C064  F062         	movff	ADC_GetConversion@channel,??_ADC_GetConversion
  2784  000AA2  0100               	movlb	0	; () banked
  2785  000AA4  4762               	rlncf	??_ADC_GetConversion& (0+255),f,b
  2786  000AA6  4762               	rlncf	??_ADC_GetConversion& (0+255),f,b
  2787  000AA8  50C2               	movf	4034,w,c	;volatile
  2788  000AAA  0100               	movlb	0	; () banked
  2789  000AAC  1962               	xorwf	??_ADC_GetConversion& (0+255),w,b
  2790  000AAE  0B83               	andlw	-125
  2791  000AB0  1962               	xorwf	??_ADC_GetConversion& (0+255),w,b
  2792  000AB2  6EC2               	movwf	4034,c	;volatile
  2793                           
  2794                           ; BSR set to: 0
  2795                           ;adc.c: 111: ADCON0bits.ADON = 1;
  2796  000AB4  80C2               	bsf	4034,0,c	;volatile
  2797                           
  2798                           ; BSR set to: 0
  2799                           ;adc.c: 115: ADCON0bits.GO_nDONE = 1;
  2800  000AB6  82C2               	bsf	4034,1,c	;volatile
  2801  000AB8                     l222:
  2802  000AB8  B2C2               	btfsc	4034,1,c	;volatile
  2803  000ABA  D7FE               	goto	l222
  2804                           
  2805                           ;adc.c: 120: }
  2806                           ;adc.c: 123: return ((ADRESH << 8) + ADRESL);
  2807  000ABC  50C4               	movf	4036,w,c	;volatile
  2808  000ABE  0100               	movlb	0	; () banked
  2809  000AC0  6F63               	movwf	(??_ADC_GetConversion+1)& (0+255),b
  2810  000AC2  6B62               	clrf	??_ADC_GetConversion& (0+255),b
  2811  000AC4  50C3               	movf	4035,w,c	;volatile
  2812  000AC6  0100               	movlb	0	; () banked
  2813  000AC8  2562               	addwf	??_ADC_GetConversion& (0+255),w,b
  2814  000ACA  0100               	movlb	0	; () banked
  2815  000ACC  6F60               	movwf	?_ADC_GetConversion& (0+255),b
  2816  000ACE  0E00               	movlw	0
  2817  000AD0  0100               	movlb	0	; () banked
  2818  000AD2  2163               	addwfc	(??_ADC_GetConversion+1)& (0+255),w,b
  2819  000AD4  0100               	movlb	0	; () banked
  2820  000AD6  6F61               	movwf	(?_ADC_GetConversion+1)& (0+255),b
  2821  000AD8  0012               	return	
  2822  000ADA                     __end_of_ADC_GetConversion:
  2823                           	opt stack 0
  2824                           tblptru	equ	0xFF8
  2825                           tblptrh	equ	0xFF7
  2826                           tblptrl	equ	0xFF6
  2827                           tablat	equ	0xFF5
  2828                           intcon	equ	0xFF2
  2829                           intcon2	equ	0xFF1
  2830                           intcon3	equ	0xFF0
  2831                           postinc0	equ	0xFEE
  2832                           wreg	equ	0xFE8
  2833                           postdec1	equ	0xFE5
  2834                           fsr1l	equ	0xFE1
  2835                           status	equ	0xFD8
  2836                           
  2837 ;; *************** function _abbassaCarrello *****************
  2838 ;; Defined at:
  2839 ;;		line 251 in file "user.c"
  2840 ;; Parameters:    Size  Location     Type
  2841 ;;		None
  2842 ;; Auto vars:     Size  Location     Type
  2843 ;;  p               1    2[BANK0 ] unsigned char 
  2844 ;;  p               1    1[BANK0 ] unsigned char 
  2845 ;; Return value:  Size  Location     Type
  2846 ;;		None               void
  2847 ;; Registers used:
  2848 ;;		wreg, status,2, status,0
  2849 ;; Tracked objects:
  2850 ;;		On entry : 0/0
  2851 ;;		On exit  : 0/0
  2852 ;;		Unchanged: 0/0
  2853 ;; Data sizes:     COMRAM   BANK0   BANK1   BANK2
  2854 ;;      Params:         0       0       0       0
  2855 ;;      Locals:         0       2       0       0
  2856 ;;      Temps:          0       1       0       0
  2857 ;;      Totals:         0       3       0       0
  2858 ;;Total ram usage:        3 bytes
  2859 ;; Hardware stack levels used:    1
  2860 ;; Hardware stack levels required when called:    3
  2861 ;; This function calls:
  2862 ;;		Nothing
  2863 ;; This function is called by:
  2864 ;;		_main
  2865 ;; This function uses a non-reentrant model
  2866 ;;
  2867                           
  2868                           	psect	text12
  2869  000756                     __ptext12:
  2870                           	opt stack 0
  2871  000756                     _abbassaCarrello:
  2872                           	opt stack 27
  2873                           
  2874                           ;user.c: 252: uint8_t p = 0;
  2875                           
  2876                           ; BSR set to: 0
  2877                           ;incstack = 0
  2878  000756  0E00               	movlw	0
  2879  000758  0100               	movlb	0	; () banked
  2880  00075A  6F61               	movwf	abbassaCarrello@p& (0+255),b
  2881                           
  2882                           ;user.c: 253: for(uint8_t p = 0; p<43;p++)
  2883  00075C  0E00               	movlw	0
  2884  00075E  0100               	movlb	0	; () banked
  2885  000760  6F62               	movwf	abbassaCarrello@p_1028& (0+255),b
  2886  000762                     l1886:
  2887                           
  2888                           ; BSR set to: 0
  2889  000762  0E2A               	movlw	42
  2890  000764  0100               	movlb	0	; () banked
  2891  000766  6562               	cpfsgt	abbassaCarrello@p_1028& (0+255),b
  2892  000768  D001               	goto	l362
  2893  00076A  D054               	goto	l363
  2894  00076C                     l362:
  2895                           
  2896                           ; BSR set to: 0
  2897                           ;user.c: 254: {
  2898                           ;user.c: 255: LATC7 = 1;
  2899  00076C  8E8B               	bsf	3979,7,c	;volatile
  2900                           
  2901                           ;user.c: 256: LATC4=1;
  2902  00076E  888B               	bsf	3979,4,c	;volatile
  2903                           
  2904                           ;user.c: 257: LATC5=1;
  2905  000770  8A8B               	bsf	3979,5,c	;volatile
  2906                           
  2907                           ;user.c: 258: LATC3=0;
  2908  000772  968B               	bcf	3979,3,c	;volatile
  2909                           
  2910                           ;user.c: 259: LATC6=0;
  2911  000774  9C8B               	bcf	3979,6,c	;volatile
  2912                           
  2913                           ; BSR set to: 0
  2914                           ;user.c: 260: _delay((unsigned long)((10)*(64000000/4000.0)));
  2915  000776  0ED0               	movlw	208
  2916  000778  0100               	movlb	0	; () banked
  2917  00077A  6F60               	movwf	??_abbassaCarrello& (0+255),b
  2918  00077C  0ECA               	movlw	202
  2919  00077E                     u1177:
  2920  00077E  2EE8               	decfsz	wreg,f,c
  2921  000780  D7FE               	goto	u1177
  2922  000782  2F60               	decfsz	??_abbassaCarrello& (0+255),f,b
  2923  000784  D7FC               	goto	u1177
  2924                           
  2925                           ;user.c: 261: _delay((unsigned long)((2)*(64000000/4000.0)));
  2926  000786  0E2A               	movlw	42
  2927  000788  0100               	movlb	0	; () banked
  2928  00078A  6F60               	movwf	??_abbassaCarrello& (0+255),b
  2929  00078C  0E8E               	movlw	142
  2930  00078E                     u1187:
  2931  00078E  2EE8               	decfsz	wreg,f,c
  2932  000790  D7FE               	goto	u1187
  2933  000792  2F60               	decfsz	??_abbassaCarrello& (0+255),f,b
  2934  000794  D7FC               	goto	u1187
  2935                           
  2936                           ;user.c: 262: LATC4=1;
  2937  000796  888B               	bsf	3979,4,c	;volatile
  2938                           
  2939                           ;user.c: 263: LATC5=0;
  2940  000798  9A8B               	bcf	3979,5,c	;volatile
  2941                           
  2942                           ;user.c: 264: LATC3=0;
  2943  00079A  968B               	bcf	3979,3,c	;volatile
  2944                           
  2945                           ;user.c: 265: LATC6=1;
  2946  00079C  8C8B               	bsf	3979,6,c	;volatile
  2947                           
  2948                           ;user.c: 266: _delay((unsigned long)((10)*(64000000/4000.0)));
  2949  00079E  0ED0               	movlw	208
  2950  0007A0  0100               	movlb	0	; () banked
  2951  0007A2  6F60               	movwf	??_abbassaCarrello& (0+255),b
  2952  0007A4  0ECA               	movlw	202
  2953  0007A6                     u1197:
  2954  0007A6  2EE8               	decfsz	wreg,f,c
  2955  0007A8  D7FE               	goto	u1197
  2956  0007AA  2F60               	decfsz	??_abbassaCarrello& (0+255),f,b
  2957  0007AC  D7FC               	goto	u1197
  2958                           
  2959                           ;user.c: 267: _delay((unsigned long)((2)*(64000000/4000.0)));
  2960  0007AE  0E2A               	movlw	42
  2961  0007B0  0100               	movlb	0	; () banked
  2962  0007B2  6F60               	movwf	??_abbassaCarrello& (0+255),b
  2963  0007B4  0E8E               	movlw	142
  2964  0007B6                     u1207:
  2965  0007B6  2EE8               	decfsz	wreg,f,c
  2966  0007B8  D7FE               	goto	u1207
  2967  0007BA  2F60               	decfsz	??_abbassaCarrello& (0+255),f,b
  2968  0007BC  D7FC               	goto	u1207
  2969                           
  2970                           ;user.c: 268: LATC4=0;
  2971  0007BE  988B               	bcf	3979,4,c	;volatile
  2972                           
  2973                           ;user.c: 269: LATC5=0;
  2974  0007C0  9A8B               	bcf	3979,5,c	;volatile
  2975                           
  2976                           ;user.c: 270: LATC3=1;
  2977  0007C2  868B               	bsf	3979,3,c	;volatile
  2978                           
  2979                           ;user.c: 271: LATC6=1;
  2980  0007C4  8C8B               	bsf	3979,6,c	;volatile
  2981                           
  2982                           ;user.c: 272: _delay((unsigned long)((10)*(64000000/4000.0)));
  2983  0007C6  0ED0               	movlw	208
  2984  0007C8  0100               	movlb	0	; () banked
  2985  0007CA  6F60               	movwf	??_abbassaCarrello& (0+255),b
  2986  0007CC  0ECA               	movlw	202
  2987  0007CE                     u1217:
  2988  0007CE  2EE8               	decfsz	wreg,f,c
  2989  0007D0  D7FE               	goto	u1217
  2990  0007D2  2F60               	decfsz	??_abbassaCarrello& (0+255),f,b
  2991  0007D4  D7FC               	goto	u1217
  2992                           
  2993                           ;user.c: 273: _delay((unsigned long)((2)*(64000000/4000.0)));
  2994  0007D6  0E2A               	movlw	42
  2995  0007D8  0100               	movlb	0	; () banked
  2996  0007DA  6F60               	movwf	??_abbassaCarrello& (0+255),b
  2997  0007DC  0E8E               	movlw	142
  2998  0007DE                     u1227:
  2999  0007DE  2EE8               	decfsz	wreg,f,c
  3000  0007E0  D7FE               	goto	u1227
  3001  0007E2  2F60               	decfsz	??_abbassaCarrello& (0+255),f,b
  3002  0007E4  D7FC               	goto	u1227
  3003                           
  3004                           ;user.c: 274: LATC4=0;
  3005  0007E6  988B               	bcf	3979,4,c	;volatile
  3006                           
  3007                           ;user.c: 275: LATC5=1;
  3008  0007E8  8A8B               	bsf	3979,5,c	;volatile
  3009                           
  3010                           ;user.c: 276: LATC3=1;
  3011  0007EA  868B               	bsf	3979,3,c	;volatile
  3012                           
  3013                           ;user.c: 277: LATC6=0;
  3014  0007EC  9C8B               	bcf	3979,6,c	;volatile
  3015                           
  3016                           ;user.c: 278: _delay((unsigned long)((10)*(64000000/4000.0)));
  3017  0007EE  0ED0               	movlw	208
  3018  0007F0  0100               	movlb	0	; () banked
  3019  0007F2  6F60               	movwf	??_abbassaCarrello& (0+255),b
  3020  0007F4  0ECA               	movlw	202
  3021  0007F6                     u1237:
  3022  0007F6  2EE8               	decfsz	wreg,f,c
  3023  0007F8  D7FE               	goto	u1237
  3024  0007FA  2F60               	decfsz	??_abbassaCarrello& (0+255),f,b
  3025  0007FC  D7FC               	goto	u1237
  3026                           
  3027                           ;user.c: 279: _delay((unsigned long)((2)*(64000000/4000.0)));
  3028  0007FE  0E2A               	movlw	42
  3029  000800  0100               	movlb	0	; () banked
  3030  000802  6F60               	movwf	??_abbassaCarrello& (0+255),b
  3031  000804  0E8E               	movlw	142
  3032  000806                     u1247:
  3033  000806  2EE8               	decfsz	wreg,f,c
  3034  000808  D7FE               	goto	u1247
  3035  00080A  2F60               	decfsz	??_abbassaCarrello& (0+255),f,b
  3036  00080C  D7FC               	goto	u1247
  3037  00080E  0100               	movlb	0	; () banked
  3038  000810  2B62               	incf	abbassaCarrello@p_1028& (0+255),f,b
  3039  000812  D7A7               	goto	l1886
  3040  000814                     l363:
  3041                           
  3042                           ; BSR set to: 0
  3043                           ;user.c: 282: }
  3044                           ;user.c: 283: LATC7 = 0;
  3045  000814  9E8B               	bcf	3979,7,c	;volatile
  3046                           
  3047                           ; BSR set to: 0
  3048  000816  0012               	return		;funcret
  3049  000818                     __end_of_abbassaCarrello:
  3050                           	opt stack 0
  3051                           tblptru	equ	0xFF8
  3052                           tblptrh	equ	0xFF7
  3053                           tblptrl	equ	0xFF6
  3054                           tablat	equ	0xFF5
  3055                           intcon	equ	0xFF2
  3056                           intcon2	equ	0xFF1
  3057                           intcon3	equ	0xFF0
  3058                           postinc0	equ	0xFEE
  3059                           wreg	equ	0xFE8
  3060                           postdec1	equ	0xFE5
  3061                           fsr1l	equ	0xFE1
  3062                           status	equ	0xFD8
  3063                           
  3064 ;; *************** function _SYSTEM_Initialize *****************
  3065 ;; Defined at:
  3066 ;;		line 106 in file "mcc_generated_files/mcc.c"
  3067 ;; Parameters:    Size  Location     Type
  3068 ;;		None
  3069 ;; Auto vars:     Size  Location     Type
  3070 ;;		None
  3071 ;; Return value:  Size  Location     Type
  3072 ;;		None               void
  3073 ;; Registers used:
  3074 ;;		wreg, status,2, cstack
  3075 ;; Tracked objects:
  3076 ;;		On entry : 0/0
  3077 ;;		On exit  : 0/0
  3078 ;;		Unchanged: 0/0
  3079 ;; Data sizes:     COMRAM   BANK0   BANK1   BANK2
  3080 ;;      Params:         0       0       0       0
  3081 ;;      Locals:         0       0       0       0
  3082 ;;      Temps:          0       0       0       0
  3083 ;;      Totals:         0       0       0       0
  3084 ;;Total ram usage:        0 bytes
  3085 ;; Hardware stack levels used:    1
  3086 ;; Hardware stack levels required when called:    5
  3087 ;; This function calls:
  3088 ;;		_ADC_Initialize
  3089 ;;		_CCP4_Initialize
  3090 ;;		_EPWM1_Initialize
  3091 ;;		_EPWM2_Initialize
  3092 ;;		_OSCILLATOR_Initialize
  3093 ;;		_PIN_MANAGER_Initialize
  3094 ;;		_TMR1_Initialize
  3095 ;;		_TMR2_Initialize
  3096 ;; This function is called by:
  3097 ;;		_main
  3098 ;; This function uses a non-reentrant model
  3099 ;;
  3100                           
  3101                           	psect	text13
  3102  000BBE                     __ptext13:
  3103                           	opt stack 0
  3104  000BBE                     _SYSTEM_Initialize:
  3105                           	opt stack 25
  3106                           
  3107                           ;mcc.c: 108: OSCILLATOR_Initialize();
  3108                           
  3109                           ; BSR set to: 0
  3110                           ;incstack = 0
  3111  000BBE  EC59  F006         	call	_OSCILLATOR_Initialize	;wreg free
  3112                           
  3113                           ;mcc.c: 109: PIN_MANAGER_Initialize();
  3114  000BC2  ECC7  F005         	call	_PIN_MANAGER_Initialize	;wreg free
  3115                           
  3116                           ;mcc.c: 110: ADC_Initialize();
  3117  000BC6  EC3C  F006         	call	_ADC_Initialize	;wreg free
  3118                           
  3119                           ;mcc.c: 111: TMR2_Initialize();
  3120  000BCA  EC47  F006         	call	_TMR2_Initialize	;wreg free
  3121                           
  3122                           ;mcc.c: 112: EPWM1_Initialize();
  3123  000BCE  EC10  F006         	call	_EPWM1_Initialize	;wreg free
  3124                           
  3125                           ;mcc.c: 113: EPWM2_Initialize();
  3126  000BD2  EC00  F006         	call	_EPWM2_Initialize	;wreg free
  3127                           
  3128                           ;mcc.c: 114: TMR1_Initialize();
  3129  000BD6  ECF0  F005         	call	_TMR1_Initialize	;wreg free
  3130                           
  3131                           ;mcc.c: 115: CCP4_Initialize();
  3132  000BDA  EC2F  F006         	call	_CCP4_Initialize	;wreg free
  3133  000BDE  0012               	return		;funcret
  3134  000BE0                     __end_of_SYSTEM_Initialize:
  3135                           	opt stack 0
  3136                           tblptru	equ	0xFF8
  3137                           tblptrh	equ	0xFF7
  3138                           tblptrl	equ	0xFF6
  3139                           tablat	equ	0xFF5
  3140                           intcon	equ	0xFF2
  3141                           intcon2	equ	0xFF1
  3142                           intcon3	equ	0xFF0
  3143                           postinc0	equ	0xFEE
  3144                           wreg	equ	0xFE8
  3145                           postdec1	equ	0xFE5
  3146                           fsr1l	equ	0xFE1
  3147                           status	equ	0xFD8
  3148                           
  3149 ;; *************** function _TMR2_Initialize *****************
  3150 ;; Defined at:
  3151 ;;		line 58 in file "mcc_generated_files/tmr2.c"
  3152 ;; Parameters:    Size  Location     Type
  3153 ;;		None
  3154 ;; Auto vars:     Size  Location     Type
  3155 ;;		None
  3156 ;; Return value:  Size  Location     Type
  3157 ;;		None               void
  3158 ;; Registers used:
  3159 ;;		wreg, status,2, cstack
  3160 ;; Tracked objects:
  3161 ;;		On entry : 0/0
  3162 ;;		On exit  : 0/0
  3163 ;;		Unchanged: 0/0
  3164 ;; Data sizes:     COMRAM   BANK0   BANK1   BANK2
  3165 ;;      Params:         0       0       0       0
  3166 ;;      Locals:         0       0       0       0
  3167 ;;      Temps:          0       0       0       0
  3168 ;;      Totals:         0       0       0       0
  3169 ;;Total ram usage:        0 bytes
  3170 ;; Hardware stack levels used:    1
  3171 ;; Hardware stack levels required when called:    4
  3172 ;; This function calls:
  3173 ;;		_TMR2_StartTimer
  3174 ;; This function is called by:
  3175 ;;		_SYSTEM_Initialize
  3176 ;; This function uses a non-reentrant model
  3177 ;;
  3178                           
  3179                           	psect	text14
  3180  000C8E                     __ptext14:
  3181                           	opt stack 0
  3182  000C8E                     _TMR2_Initialize:
  3183                           	opt stack 25
  3184                           
  3185                           ;tmr2.c: 63: T2CON = 0x02;
  3186                           
  3187                           ;incstack = 0
  3188  000C8E  0E02               	movlw	2
  3189  000C90  6EBA               	movwf	4026,c	;volatile
  3190                           
  3191                           ;tmr2.c: 66: PR2 = 0xFF;
  3192  000C92  68BB               	setf	4027,c	;volatile
  3193                           
  3194                           ;tmr2.c: 69: TMR2 = 0x00;
  3195  000C94  0E00               	movlw	0
  3196  000C96  6EBC               	movwf	4028,c	;volatile
  3197                           
  3198                           ;tmr2.c: 72: PIR1bits.TMR2IF = 0;
  3199  000C98  929E               	bcf	3998,1,c	;volatile
  3200                           
  3201                           ;tmr2.c: 75: TMR2_StartTimer();
  3202  000C9A  EC62  F006         	call	_TMR2_StartTimer	;wreg free
  3203  000C9E  0012               	return		;funcret
  3204  000CA0                     __end_of_TMR2_Initialize:
  3205                           	opt stack 0
  3206                           tblptru	equ	0xFF8
  3207                           tblptrh	equ	0xFF7
  3208                           tblptrl	equ	0xFF6
  3209                           tablat	equ	0xFF5
  3210                           intcon	equ	0xFF2
  3211                           intcon2	equ	0xFF1
  3212                           intcon3	equ	0xFF0
  3213                           postinc0	equ	0xFEE
  3214                           wreg	equ	0xFE8
  3215                           postdec1	equ	0xFE5
  3216                           fsr1l	equ	0xFE1
  3217                           status	equ	0xFD8
  3218                           
  3219 ;; *************** function _TMR2_StartTimer *****************
  3220 ;; Defined at:
  3221 ;;		line 78 in file "mcc_generated_files/tmr2.c"
  3222 ;; Parameters:    Size  Location     Type
  3223 ;;		None
  3224 ;; Auto vars:     Size  Location     Type
  3225 ;;		None
  3226 ;; Return value:  Size  Location     Type
  3227 ;;		None               void
  3228 ;; Registers used:
  3229 ;;		None
  3230 ;; Tracked objects:
  3231 ;;		On entry : 0/0
  3232 ;;		On exit  : 0/0
  3233 ;;		Unchanged: 0/0
  3234 ;; Data sizes:     COMRAM   BANK0   BANK1   BANK2
  3235 ;;      Params:         0       0       0       0
  3236 ;;      Locals:         0       0       0       0
  3237 ;;      Temps:          0       0       0       0
  3238 ;;      Totals:         0       0       0       0
  3239 ;;Total ram usage:        0 bytes
  3240 ;; Hardware stack levels used:    1
  3241 ;; Hardware stack levels required when called:    3
  3242 ;; This function calls:
  3243 ;;		Nothing
  3244 ;; This function is called by:
  3245 ;;		_TMR2_Initialize
  3246 ;; This function uses a non-reentrant model
  3247 ;;
  3248                           
  3249                           	psect	text15
  3250  000CC4                     __ptext15:
  3251                           	opt stack 0
  3252  000CC4                     _TMR2_StartTimer:
  3253                           	opt stack 25
  3254                           
  3255                           ;tmr2.c: 81: T2CONbits.TMR2ON = 1;
  3256                           
  3257                           ;incstack = 0
  3258  000CC4  84BA               	bsf	4026,2,c	;volatile
  3259  000CC6  0012               	return		;funcret
  3260  000CC8                     __end_of_TMR2_StartTimer:
  3261                           	opt stack 0
  3262                           tblptru	equ	0xFF8
  3263                           tblptrh	equ	0xFF7
  3264                           tblptrl	equ	0xFF6
  3265                           tablat	equ	0xFF5
  3266                           intcon	equ	0xFF2
  3267                           intcon2	equ	0xFF1
  3268                           intcon3	equ	0xFF0
  3269                           postinc0	equ	0xFEE
  3270                           wreg	equ	0xFE8
  3271                           postdec1	equ	0xFE5
  3272                           fsr1l	equ	0xFE1
  3273                           status	equ	0xFD8
  3274                           
  3275 ;; *************** function _TMR1_Initialize *****************
  3276 ;; Defined at:
  3277 ;;		line 63 in file "mcc_generated_files/tmr1.c"
  3278 ;; Parameters:    Size  Location     Type
  3279 ;;		None
  3280 ;; Auto vars:     Size  Location     Type
  3281 ;;		None
  3282 ;; Return value:  Size  Location     Type
  3283 ;;		None               void
  3284 ;; Registers used:
  3285 ;;		wreg, status,2, cstack
  3286 ;; Tracked objects:
  3287 ;;		On entry : 0/0
  3288 ;;		On exit  : 0/0
  3289 ;;		Unchanged: 0/0
  3290 ;; Data sizes:     COMRAM   BANK0   BANK1   BANK2
  3291 ;;      Params:         0       0       0       0
  3292 ;;      Locals:         0       0       0       0
  3293 ;;      Temps:          0       0       0       0
  3294 ;;      Totals:         0       0       0       0
  3295 ;;Total ram usage:        0 bytes
  3296 ;; Hardware stack levels used:    1
  3297 ;; Hardware stack levels required when called:    4
  3298 ;; This function calls:
  3299 ;;		_TMR1_StartTimer
  3300 ;; This function is called by:
  3301 ;;		_SYSTEM_Initialize
  3302 ;; This function uses a non-reentrant model
  3303 ;;
  3304                           
  3305                           	psect	text16
  3306  000BE0                     __ptext16:
  3307                           	opt stack 0
  3308  000BE0                     _TMR1_Initialize:
  3309                           	opt stack 25
  3310                           
  3311                           ;tmr1.c: 68: T1CON = 0x00;
  3312                           
  3313                           ;incstack = 0
  3314  000BE0  0E00               	movlw	0
  3315  000BE2  6ECD               	movwf	4045,c	;volatile
  3316                           
  3317                           ;tmr1.c: 71: T1GCON = 0x00;
  3318  000BE4  0E00               	movlw	0
  3319  000BE6  6ECC               	movwf	4044,c	;volatile
  3320                           
  3321                           ;tmr1.c: 74: TMR1H = 0x00;
  3322  000BE8  0E00               	movlw	0
  3323  000BEA  6ECF               	movwf	4047,c	;volatile
  3324                           
  3325                           ;tmr1.c: 77: TMR1L = 0x00;
  3326  000BEC  0E00               	movlw	0
  3327  000BEE  6ECE               	movwf	4046,c	;volatile
  3328                           
  3329                           ;tmr1.c: 80: timer1ReloadVal=TMR1;
  3330  000BF0  CFCE F03B          	movff	4046,_timer1ReloadVal	;volatile
  3331  000BF4  CFCF F03C          	movff	4047,_timer1ReloadVal+1	;volatile
  3332                           
  3333                           ;tmr1.c: 83: PIR1bits.TMR1IF = 0;
  3334  000BF8  909E               	bcf	3998,0,c	;volatile
  3335                           
  3336                           ;tmr1.c: 86: TMR1_StartTimer();
  3337  000BFA  EC64  F006         	call	_TMR1_StartTimer	;wreg free
  3338  000BFE  0012               	return		;funcret
  3339  000C00                     __end_of_TMR1_Initialize:
  3340                           	opt stack 0
  3341                           tblptru	equ	0xFF8
  3342                           tblptrh	equ	0xFF7
  3343                           tblptrl	equ	0xFF6
  3344                           tablat	equ	0xFF5
  3345                           intcon	equ	0xFF2
  3346                           intcon2	equ	0xFF1
  3347                           intcon3	equ	0xFF0
  3348                           postinc0	equ	0xFEE
  3349                           wreg	equ	0xFE8
  3350                           postdec1	equ	0xFE5
  3351                           fsr1l	equ	0xFE1
  3352                           status	equ	0xFD8
  3353                           
  3354 ;; *************** function _TMR1_StartTimer *****************
  3355 ;; Defined at:
  3356 ;;		line 89 in file "mcc_generated_files/tmr1.c"
  3357 ;; Parameters:    Size  Location     Type
  3358 ;;		None
  3359 ;; Auto vars:     Size  Location     Type
  3360 ;;		None
  3361 ;; Return value:  Size  Location     Type
  3362 ;;		None               void
  3363 ;; Registers used:
  3364 ;;		None
  3365 ;; Tracked objects:
  3366 ;;		On entry : 0/0
  3367 ;;		On exit  : 0/0
  3368 ;;		Unchanged: 0/0
  3369 ;; Data sizes:     COMRAM   BANK0   BANK1   BANK2
  3370 ;;      Params:         0       0       0       0
  3371 ;;      Locals:         0       0       0       0
  3372 ;;      Temps:          0       0       0       0
  3373 ;;      Totals:         0       0       0       0
  3374 ;;Total ram usage:        0 bytes
  3375 ;; Hardware stack levels used:    1
  3376 ;; Hardware stack levels required when called:    3
  3377 ;; This function calls:
  3378 ;;		Nothing
  3379 ;; This function is called by:
  3380 ;;		_TMR1_Initialize
  3381 ;; This function uses a non-reentrant model
  3382 ;;
  3383                           
  3384                           	psect	text17
  3385  000CC8                     __ptext17:
  3386                           	opt stack 0
  3387  000CC8                     _TMR1_StartTimer:
  3388                           	opt stack 25
  3389                           
  3390                           ;tmr1.c: 92: T1CONbits.TMR1ON = 1;
  3391                           
  3392                           ;incstack = 0
  3393  000CC8  80CD               	bsf	4045,0,c	;volatile
  3394  000CCA  0012               	return		;funcret
  3395  000CCC                     __end_of_TMR1_StartTimer:
  3396                           	opt stack 0
  3397                           tblptru	equ	0xFF8
  3398                           tblptrh	equ	0xFF7
  3399                           tblptrl	equ	0xFF6
  3400                           tablat	equ	0xFF5
  3401                           intcon	equ	0xFF2
  3402                           intcon2	equ	0xFF1
  3403                           intcon3	equ	0xFF0
  3404                           postinc0	equ	0xFEE
  3405                           wreg	equ	0xFE8
  3406                           postdec1	equ	0xFE5
  3407                           fsr1l	equ	0xFE1
  3408                           status	equ	0xFD8
  3409                           
  3410 ;; *************** function _PIN_MANAGER_Initialize *****************
  3411 ;; Defined at:
  3412 ;;		line 50 in file "mcc_generated_files/pin_manager.c"
  3413 ;; Parameters:    Size  Location     Type
  3414 ;;		None
  3415 ;; Auto vars:     Size  Location     Type
  3416 ;;		None
  3417 ;; Return value:  Size  Location     Type
  3418 ;;		None               void
  3419 ;; Registers used:
  3420 ;;		wreg, status,2
  3421 ;; Tracked objects:
  3422 ;;		On entry : 0/0
  3423 ;;		On exit  : 0/0
  3424 ;;		Unchanged: 0/0
  3425 ;; Data sizes:     COMRAM   BANK0   BANK1   BANK2
  3426 ;;      Params:         0       0       0       0
  3427 ;;      Locals:         0       0       0       0
  3428 ;;      Temps:          0       0       0       0
  3429 ;;      Totals:         0       0       0       0
  3430 ;;Total ram usage:        0 bytes
  3431 ;; Hardware stack levels used:    1
  3432 ;; Hardware stack levels required when called:    3
  3433 ;; This function calls:
  3434 ;;		Nothing
  3435 ;; This function is called by:
  3436 ;;		_SYSTEM_Initialize
  3437 ;; This function uses a non-reentrant model
  3438 ;;
  3439                           
  3440                           	psect	text18
  3441  000B8E                     __ptext18:
  3442                           	opt stack 0
  3443  000B8E                     _PIN_MANAGER_Initialize:
  3444                           	opt stack 26
  3445                           
  3446                           ;pin_manager.c: 52: LATA = 0x00;
  3447                           
  3448                           ;incstack = 0
  3449  000B8E  0E00               	movlw	0
  3450  000B90  6E89               	movwf	3977,c	;volatile
  3451                           
  3452                           ;pin_manager.c: 53: TRISA = 0xFF;
  3453  000B92  6892               	setf	3986,c	;volatile
  3454                           
  3455                           ;pin_manager.c: 54: ANSELA = 0x2F;
  3456  000B94  0E2F               	movlw	47
  3457  000B96  010F               	movlb	15	; () banked
  3458  000B98  6F38               	movwf	56,b	;volatile
  3459                           
  3460                           ;pin_manager.c: 56: LATB = 0x00;
  3461  000B9A  0E00               	movlw	0
  3462  000B9C  6E8A               	movwf	3978,c	;volatile
  3463                           
  3464                           ;pin_manager.c: 57: TRISB = 0xFE;
  3465  000B9E  0EFE               	movlw	254
  3466  000BA0  6E93               	movwf	3987,c	;volatile
  3467                           
  3468                           ;pin_manager.c: 58: ANSELB = 0x3E;
  3469  000BA2  0E3E               	movlw	62
  3470  000BA4  010F               	movlb	15	; () banked
  3471  000BA6  6F39               	movwf	57,b	;volatile
  3472                           
  3473                           ;pin_manager.c: 59: WPUB = 0x00;
  3474  000BA8  0E00               	movlw	0
  3475  000BAA  6E61               	movwf	3937,c	;volatile
  3476                           
  3477                           ;pin_manager.c: 61: LATC = 0x00;
  3478  000BAC  0E00               	movlw	0
  3479  000BAE  6E8B               	movwf	3979,c	;volatile
  3480                           
  3481                           ;pin_manager.c: 62: TRISC = 0xF9;
  3482  000BB0  0EF9               	movlw	249
  3483  000BB2  6E94               	movwf	3988,c	;volatile
  3484                           
  3485                           ;pin_manager.c: 63: ANSELC = 0xF8;
  3486  000BB4  0EF8               	movlw	248
  3487  000BB6  010F               	movlb	15	; () banked
  3488  000BB8  6F3A               	movwf	58,b	;volatile
  3489                           
  3490                           ; BSR set to: 15
  3491                           ;pin_manager.c: 65: INTCON2bits.nRBPU = 0x01;
  3492  000BBA  8EF1               	bsf	intcon2,7,c	;volatile
  3493                           
  3494                           ; BSR set to: 15
  3495  000BBC  0012               	return		;funcret
  3496  000BBE                     __end_of_PIN_MANAGER_Initialize:
  3497                           	opt stack 0
  3498                           tblptru	equ	0xFF8
  3499                           tblptrh	equ	0xFF7
  3500                           tblptrl	equ	0xFF6
  3501                           tablat	equ	0xFF5
  3502                           intcon	equ	0xFF2
  3503                           intcon2	equ	0xFF1
  3504                           intcon3	equ	0xFF0
  3505                           postinc0	equ	0xFEE
  3506                           wreg	equ	0xFE8
  3507                           postdec1	equ	0xFE5
  3508                           fsr1l	equ	0xFE1
  3509                           status	equ	0xFD8
  3510                           
  3511 ;; *************** function _OSCILLATOR_Initialize *****************
  3512 ;; Defined at:
  3513 ;;		line 118 in file "mcc_generated_files/mcc.c"
  3514 ;; Parameters:    Size  Location     Type
  3515 ;;		None
  3516 ;; Auto vars:     Size  Location     Type
  3517 ;;		None
  3518 ;; Return value:  Size  Location     Type
  3519 ;;		None               void
  3520 ;; Registers used:
  3521 ;;		wreg, status,2
  3522 ;; Tracked objects:
  3523 ;;		On entry : 0/0
  3524 ;;		On exit  : 0/0
  3525 ;;		Unchanged: 0/0
  3526 ;; Data sizes:     COMRAM   BANK0   BANK1   BANK2
  3527 ;;      Params:         0       0       0       0
  3528 ;;      Locals:         0       0       0       0
  3529 ;;      Temps:          0       0       0       0
  3530 ;;      Totals:         0       0       0       0
  3531 ;;Total ram usage:        0 bytes
  3532 ;; Hardware stack levels used:    1
  3533 ;; Hardware stack levels required when called:    3
  3534 ;; This function calls:
  3535 ;;		Nothing
  3536 ;; This function is called by:
  3537 ;;		_SYSTEM_Initialize
  3538 ;;		_main
  3539 ;; This function uses a non-reentrant model
  3540 ;;
  3541                           
  3542                           	psect	text19
  3543  000CB2                     __ptext19:
  3544                           	opt stack 0
  3545  000CB2                     _OSCILLATOR_Initialize:
  3546                           	opt stack 26
  3547                           
  3548                           ;mcc.c: 121: OSCCON = 0x70;
  3549                           
  3550                           ; BSR set to: 15
  3551                           ;incstack = 0
  3552  000CB2  0E70               	movlw	112
  3553  000CB4  6ED3               	movwf	4051,c	;volatile
  3554                           
  3555                           ;mcc.c: 123: OSCCON2 = 0x04;
  3556  000CB6  0E04               	movlw	4
  3557  000CB8  6ED2               	movwf	4050,c	;volatile
  3558                           
  3559                           ;mcc.c: 125: OSCTUNE = 0x40;
  3560  000CBA  0E40               	movlw	64
  3561  000CBC  6E9B               	movwf	3995,c	;volatile
  3562  000CBE  0012               	return		;funcret
  3563  000CC0                     __end_of_OSCILLATOR_Initialize:
  3564                           	opt stack 0
  3565                           tblptru	equ	0xFF8
  3566                           tblptrh	equ	0xFF7
  3567                           tblptrl	equ	0xFF6
  3568                           tablat	equ	0xFF5
  3569                           intcon	equ	0xFF2
  3570                           intcon2	equ	0xFF1
  3571                           intcon3	equ	0xFF0
  3572                           postinc0	equ	0xFEE
  3573                           wreg	equ	0xFE8
  3574                           postdec1	equ	0xFE5
  3575                           fsr1l	equ	0xFE1
  3576                           status	equ	0xFD8
  3577                           
  3578 ;; *************** function _EPWM2_Initialize *****************
  3579 ;; Defined at:
  3580 ;;		line 64 in file "mcc_generated_files/epwm2.c"
  3581 ;; Parameters:    Size  Location     Type
  3582 ;;		None
  3583 ;; Auto vars:     Size  Location     Type
  3584 ;;		None
  3585 ;; Return value:  Size  Location     Type
  3586 ;;		None               void
  3587 ;; Registers used:
  3588 ;;		wreg, status,2
  3589 ;; Tracked objects:
  3590 ;;		On entry : 0/0
  3591 ;;		On exit  : 0/0
  3592 ;;		Unchanged: 0/0
  3593 ;; Data sizes:     COMRAM   BANK0   BANK1   BANK2
  3594 ;;      Params:         0       0       0       0
  3595 ;;      Locals:         0       0       0       0
  3596 ;;      Temps:          0       0       0       0
  3597 ;;      Totals:         0       0       0       0
  3598 ;;Total ram usage:        0 bytes
  3599 ;; Hardware stack levels used:    1
  3600 ;; Hardware stack levels required when called:    3
  3601 ;; This function calls:
  3602 ;;		Nothing
  3603 ;; This function is called by:
  3604 ;;		_SYSTEM_Initialize
  3605 ;; This function uses a non-reentrant model
  3606 ;;
  3607                           
  3608                           	psect	text20
  3609  000C00                     __ptext20:
  3610                           	opt stack 0
  3611  000C00                     _EPWM2_Initialize:
  3612                           	opt stack 26
  3613                           
  3614                           ;epwm2.c: 69: CCP2CON = 0x3C;
  3615                           
  3616                           ;incstack = 0
  3617  000C00  0E3C               	movlw	60
  3618  000C02  6E66               	movwf	3942,c	;volatile
  3619                           
  3620                           ;epwm2.c: 72: ECCP2AS = 0x00;
  3621  000C04  0E00               	movlw	0
  3622  000C06  6E64               	movwf	3940,c	;volatile
  3623                           
  3624                           ;epwm2.c: 75: PWM2CON = 0x80;
  3625  000C08  0E80               	movlw	128
  3626  000C0A  6E65               	movwf	3941,c	;volatile
  3627                           
  3628                           ;epwm2.c: 78: PSTR2CON = 0x01;
  3629  000C0C  0E01               	movlw	1
  3630  000C0E  6E63               	movwf	3939,c	;volatile
  3631                           
  3632                           ;epwm2.c: 81: CCPR2L = 0x7F;
  3633  000C10  0E7F               	movlw	127
  3634  000C12  6E67               	movwf	3943,c	;volatile
  3635                           
  3636                           ;epwm2.c: 84: CCPR2H = 0x00;
  3637  000C14  0E00               	movlw	0
  3638  000C16  6E68               	movwf	3944,c	;volatile
  3639                           
  3640                           ;epwm2.c: 88: CCPTMRS0bits.C2TSEL = 0x0;
  3641  000C18  0EE7               	movlw	-25
  3642  000C1A  010F               	movlb	15	; () banked
  3643  000C1C  1749               	andwf	73,f,b	;volatile
  3644                           
  3645                           ; BSR set to: 15
  3646  000C1E  0012               	return		;funcret
  3647  000C20                     __end_of_EPWM2_Initialize:
  3648                           	opt stack 0
  3649                           tblptru	equ	0xFF8
  3650                           tblptrh	equ	0xFF7
  3651                           tblptrl	equ	0xFF6
  3652                           tablat	equ	0xFF5
  3653                           intcon	equ	0xFF2
  3654                           intcon2	equ	0xFF1
  3655                           intcon3	equ	0xFF0
  3656                           postinc0	equ	0xFEE
  3657                           wreg	equ	0xFE8
  3658                           postdec1	equ	0xFE5
  3659                           fsr1l	equ	0xFE1
  3660                           status	equ	0xFD8
  3661                           
  3662 ;; *************** function _EPWM1_Initialize *****************
  3663 ;; Defined at:
  3664 ;;		line 64 in file "mcc_generated_files/epwm1.c"
  3665 ;; Parameters:    Size  Location     Type
  3666 ;;		None
  3667 ;; Auto vars:     Size  Location     Type
  3668 ;;		None
  3669 ;; Return value:  Size  Location     Type
  3670 ;;		None               void
  3671 ;; Registers used:
  3672 ;;		wreg, status,2
  3673 ;; Tracked objects:
  3674 ;;		On entry : 0/0
  3675 ;;		On exit  : 0/0
  3676 ;;		Unchanged: 0/0
  3677 ;; Data sizes:     COMRAM   BANK0   BANK1   BANK2
  3678 ;;      Params:         0       0       0       0
  3679 ;;      Locals:         0       0       0       0
  3680 ;;      Temps:          0       0       0       0
  3681 ;;      Totals:         0       0       0       0
  3682 ;;Total ram usage:        0 bytes
  3683 ;; Hardware stack levels used:    1
  3684 ;; Hardware stack levels required when called:    3
  3685 ;; This function calls:
  3686 ;;		Nothing
  3687 ;; This function is called by:
  3688 ;;		_SYSTEM_Initialize
  3689 ;; This function uses a non-reentrant model
  3690 ;;
  3691                           
  3692                           	psect	text21
  3693  000C20                     __ptext21:
  3694                           	opt stack 0
  3695  000C20                     _EPWM1_Initialize:
  3696                           	opt stack 26
  3697                           
  3698                           ;epwm1.c: 69: CCP1CON = 0x3C;
  3699                           
  3700                           ; BSR set to: 15
  3701                           ;incstack = 0
  3702  000C20  0E3C               	movlw	60
  3703  000C22  6EBD               	movwf	4029,c	;volatile
  3704                           
  3705                           ;epwm1.c: 72: ECCP1AS = 0x00;
  3706  000C24  0E00               	movlw	0
  3707  000C26  6EB6               	movwf	4022,c	;volatile
  3708                           
  3709                           ;epwm1.c: 75: PWM1CON = 0x80;
  3710  000C28  0E80               	movlw	128
  3711  000C2A  6EB7               	movwf	4023,c	;volatile
  3712                           
  3713                           ;epwm1.c: 78: PSTR1CON = 0x01;
  3714  000C2C  0E01               	movlw	1
  3715  000C2E  6EB9               	movwf	4025,c	;volatile
  3716                           
  3717                           ;epwm1.c: 81: CCPR1L = 0x7F;
  3718  000C30  0E7F               	movlw	127
  3719  000C32  6EBE               	movwf	4030,c	;volatile
  3720                           
  3721                           ;epwm1.c: 84: CCPR1H = 0x00;
  3722  000C34  0E00               	movlw	0
  3723  000C36  6EBF               	movwf	4031,c	;volatile
  3724                           
  3725                           ;epwm1.c: 88: CCPTMRS0bits.C1TSEL = 0x0;
  3726  000C38  0EFC               	movlw	-4
  3727  000C3A  010F               	movlb	15	; () banked
  3728  000C3C  1749               	andwf	73,f,b	;volatile
  3729                           
  3730                           ; BSR set to: 15
  3731  000C3E  0012               	return		;funcret
  3732  000C40                     __end_of_EPWM1_Initialize:
  3733                           	opt stack 0
  3734                           tblptru	equ	0xFF8
  3735                           tblptrh	equ	0xFF7
  3736                           tblptrl	equ	0xFF6
  3737                           tablat	equ	0xFF5
  3738                           intcon	equ	0xFF2
  3739                           intcon2	equ	0xFF1
  3740                           intcon3	equ	0xFF0
  3741                           postinc0	equ	0xFEE
  3742                           wreg	equ	0xFE8
  3743                           postdec1	equ	0xFE5
  3744                           fsr1l	equ	0xFE1
  3745                           status	equ	0xFD8
  3746                           
  3747 ;; *************** function _CCP4_Initialize *****************
  3748 ;; Defined at:
  3749 ;;		line 58 in file "mcc_generated_files/ccp4.c"
  3750 ;; Parameters:    Size  Location     Type
  3751 ;;		None
  3752 ;; Auto vars:     Size  Location     Type
  3753 ;;		None
  3754 ;; Return value:  Size  Location     Type
  3755 ;;		None               void
  3756 ;; Registers used:
  3757 ;;		wreg, status,2
  3758 ;; Tracked objects:
  3759 ;;		On entry : 0/0
  3760 ;;		On exit  : 0/0
  3761 ;;		Unchanged: 0/0
  3762 ;; Data sizes:     COMRAM   BANK0   BANK1   BANK2
  3763 ;;      Params:         0       0       0       0
  3764 ;;      Locals:         0       0       0       0
  3765 ;;      Temps:          0       0       0       0
  3766 ;;      Totals:         0       0       0       0
  3767 ;;Total ram usage:        0 bytes
  3768 ;; Hardware stack levels used:    1
  3769 ;; Hardware stack levels required when called:    3
  3770 ;; This function calls:
  3771 ;;		Nothing
  3772 ;; This function is called by:
  3773 ;;		_SYSTEM_Initialize
  3774 ;; This function uses a non-reentrant model
  3775 ;;
  3776                           
  3777                           	psect	text22
  3778  000C5E                     __ptext22:
  3779                           	opt stack 0
  3780  000C5E                     _CCP4_Initialize:
  3781                           	opt stack 26
  3782                           
  3783                           ;ccp4.c: 63: CCP4CON = 0x02;
  3784                           
  3785                           ; BSR set to: 15
  3786                           ;incstack = 0
  3787  000C5E  0E02               	movlw	2
  3788  000C60  010F               	movlb	15	; () banked
  3789  000C62  6F57               	movwf	87,b	;volatile
  3790                           
  3791                           ;ccp4.c: 66: CCPR4L = 0x00;
  3792  000C64  0E00               	movlw	0
  3793  000C66  010F               	movlb	15	; () banked
  3794  000C68  6F58               	movwf	88,b	;volatile
  3795                           
  3796                           ;ccp4.c: 69: CCPR4H = 0x00;
  3797  000C6A  0E00               	movlw	0
  3798  000C6C  010F               	movlb	15	; () banked
  3799  000C6E  6F59               	movwf	89,b	;volatile
  3800                           
  3801                           ;ccp4.c: 72: CCPTMRS1bits.C4TSEL = 0x0;
  3802  000C70  0EFC               	movlw	-4
  3803  000C72  010F               	movlb	15	; () banked
  3804  000C74  1748               	andwf	72,f,b	;volatile
  3805                           
  3806                           ; BSR set to: 15
  3807  000C76  0012               	return		;funcret
  3808  000C78                     __end_of_CCP4_Initialize:
  3809                           	opt stack 0
  3810                           tblptru	equ	0xFF8
  3811                           tblptrh	equ	0xFF7
  3812                           tblptrl	equ	0xFF6
  3813                           tablat	equ	0xFF5
  3814                           intcon	equ	0xFF2
  3815                           intcon2	equ	0xFF1
  3816                           intcon3	equ	0xFF0
  3817                           postinc0	equ	0xFEE
  3818                           wreg	equ	0xFE8
  3819                           postdec1	equ	0xFE5
  3820                           fsr1l	equ	0xFE1
  3821                           status	equ	0xFD8
  3822                           
  3823 ;; *************** function _ADC_Initialize *****************
  3824 ;; Defined at:
  3825 ;;		line 59 in file "mcc_generated_files/adc.c"
  3826 ;; Parameters:    Size  Location     Type
  3827 ;;		None
  3828 ;; Auto vars:     Size  Location     Type
  3829 ;;		None
  3830 ;; Return value:  Size  Location     Type
  3831 ;;		None               void
  3832 ;; Registers used:
  3833 ;;		wreg, status,2
  3834 ;; Tracked objects:
  3835 ;;		On entry : 0/0
  3836 ;;		On exit  : 0/0
  3837 ;;		Unchanged: 0/0
  3838 ;; Data sizes:     COMRAM   BANK0   BANK1   BANK2
  3839 ;;      Params:         0       0       0       0
  3840 ;;      Locals:         0       0       0       0
  3841 ;;      Temps:          0       0       0       0
  3842 ;;      Totals:         0       0       0       0
  3843 ;;Total ram usage:        0 bytes
  3844 ;; Hardware stack levels used:    1
  3845 ;; Hardware stack levels required when called:    3
  3846 ;; This function calls:
  3847 ;;		Nothing
  3848 ;; This function is called by:
  3849 ;;		_SYSTEM_Initialize
  3850 ;; This function uses a non-reentrant model
  3851 ;;
  3852                           
  3853                           	psect	text23
  3854  000C78                     __ptext23:
  3855                           	opt stack 0
  3856  000C78                     _ADC_Initialize:
  3857                           	opt stack 26
  3858                           
  3859                           ;adc.c: 64: ADCON0 = 0x01;
  3860                           
  3861                           ; BSR set to: 15
  3862                           ;incstack = 0
  3863  000C78  0E01               	movlw	1
  3864  000C7A  6EC2               	movwf	4034,c	;volatile
  3865                           
  3866                           ;adc.c: 67: ADCON1 = 0x80;
  3867  000C7C  0E80               	movlw	128
  3868  000C7E  6EC1               	movwf	4033,c	;volatile
  3869                           
  3870                           ;adc.c: 70: ADCON2 = 0x8E;
  3871  000C80  0E8E               	movlw	142
  3872  000C82  6EC0               	movwf	4032,c	;volatile
  3873                           
  3874                           ;adc.c: 73: ADRESL = 0x00;
  3875  000C84  0E00               	movlw	0
  3876  000C86  6EC3               	movwf	4035,c	;volatile
  3877                           
  3878                           ;adc.c: 76: ADRESH = 0x00;
  3879  000C88  0E00               	movlw	0
  3880  000C8A  6EC4               	movwf	4036,c	;volatile
  3881  000C8C  0012               	return		;funcret
  3882  000C8E                     __end_of_ADC_Initialize:
  3883                           	opt stack 0
  3884                           tblptru	equ	0xFF8
  3885                           tblptrh	equ	0xFF7
  3886                           tblptrl	equ	0xFF6
  3887                           tablat	equ	0xFF5
  3888                           intcon	equ	0xFF2
  3889                           intcon2	equ	0xFF1
  3890                           intcon3	equ	0xFF0
  3891                           postinc0	equ	0xFEE
  3892                           wreg	equ	0xFE8
  3893                           postdec1	equ	0xFE5
  3894                           fsr1l	equ	0xFE1
  3895                           status	equ	0xFD8
  3896                           
  3897 ;; *************** function _InitApp *****************
  3898 ;; Defined at:
  3899 ;;		line 30 in file "user.c"
  3900 ;; Parameters:    Size  Location     Type
  3901 ;;		None
  3902 ;; Auto vars:     Size  Location     Type
  3903 ;;		None
  3904 ;; Return value:  Size  Location     Type
  3905 ;;		None               void
  3906 ;; Registers used:
  3907 ;;		wreg, status,2
  3908 ;; Tracked objects:
  3909 ;;		On entry : 0/0
  3910 ;;		On exit  : 0/0
  3911 ;;		Unchanged: 0/0
  3912 ;; Data sizes:     COMRAM   BANK0   BANK1   BANK2
  3913 ;;      Params:         0       0       0       0
  3914 ;;      Locals:         0       0       0       0
  3915 ;;      Temps:          0       0       0       0
  3916 ;;      Totals:         0       0       0       0
  3917 ;;Total ram usage:        0 bytes
  3918 ;; Hardware stack levels used:    1
  3919 ;; Hardware stack levels required when called:    3
  3920 ;; This function calls:
  3921 ;;		Nothing
  3922 ;; This function is called by:
  3923 ;;		_main
  3924 ;; This function uses a non-reentrant model
  3925 ;;
  3926                           
  3927                           	psect	text24
  3928  000C40                     __ptext24:
  3929                           	opt stack 0
  3930  000C40                     _InitApp:
  3931                           	opt stack 27
  3932                           
  3933                           ;user.c: 33: TRISAbits.RA0 = 0;
  3934                           
  3935                           ;incstack = 0
  3936  000C40  9092               	bcf	3986,0,c	;volatile
  3937                           
  3938                           ;user.c: 34: TRISAbits.RA1 = 0;
  3939  000C42  9292               	bcf	3986,1,c	;volatile
  3940                           
  3941                           ;user.c: 35: TRISAbits.RA2 = 0;
  3942  000C44  9492               	bcf	3986,2,c	;volatile
  3943                           
  3944                           ;user.c: 36: TRISAbits.RA3 = 0;
  3945  000C46  9692               	bcf	3986,3,c	;volatile
  3946                           
  3947                           ;user.c: 37: TRISAbits.RA4 = 0;
  3948  000C48  9892               	bcf	3986,4,c	;volatile
  3949                           
  3950                           ;user.c: 38: TRISAbits.RA5 = 1;
  3951  000C4A  8A92               	bsf	3986,5,c	;volatile
  3952                           
  3953                           ;user.c: 40: TRISBbits.RB0 = 0;
  3954  000C4C  9093               	bcf	3987,0,c	;volatile
  3955                           
  3956                           ;user.c: 41: TRISBbits.RB1 = 1;
  3957  000C4E  8293               	bsf	3987,1,c	;volatile
  3958                           
  3959                           ;user.c: 42: TRISBbits.RB2 = 1;
  3960  000C50  8493               	bsf	3987,2,c	;volatile
  3961                           
  3962                           ;user.c: 43: TRISBbits.RB3 = 1;
  3963  000C52  8693               	bsf	3987,3,c	;volatile
  3964                           
  3965                           ;user.c: 44: TRISBbits.RB4 = 1;
  3966  000C54  8893               	bsf	3987,4,c	;volatile
  3967                           
  3968                           ;user.c: 45: TRISBbits.RB5 = 1;
  3969  000C56  8A93               	bsf	3987,5,c	;volatile
  3970                           
  3971                           ;user.c: 48: TRISC = 0x00;
  3972  000C58  0E00               	movlw	0
  3973  000C5A  6E94               	movwf	3988,c	;volatile
  3974  000C5C  0012               	return		;funcret
  3975  000C5E                     __end_of_InitApp:
  3976                           	opt stack 0
  3977                           tblptru	equ	0xFF8
  3978                           tblptrh	equ	0xFF7
  3979                           tblptrl	equ	0xFF6
  3980                           tablat	equ	0xFF5
  3981                           intcon	equ	0xFF2
  3982                           intcon2	equ	0xFF1
  3983                           intcon3	equ	0xFF0
  3984                           postinc0	equ	0xFEE
  3985                           wreg	equ	0xFE8
  3986                           postdec1	equ	0xFE5
  3987                           fsr1l	equ	0xFE1
  3988                           status	equ	0xFD8
  3989                           
  3990 ;; *************** function _low_isr *****************
  3991 ;; Defined at:
  3992 ;;		line 67 in file "interrupts.c"
  3993 ;; Parameters:    Size  Location     Type
  3994 ;;		None
  3995 ;; Auto vars:     Size  Location     Type
  3996 ;;		None
  3997 ;; Return value:  Size  Location     Type
  3998 ;;		None               void
  3999 ;; Registers used:
  4000 ;;		None
  4001 ;; Tracked objects:
  4002 ;;		On entry : 0/0
  4003 ;;		On exit  : 0/0
  4004 ;;		Unchanged: 0/0
  4005 ;; Data sizes:     COMRAM   BANK0   BANK1   BANK2
  4006 ;;      Params:         0       0       0       0
  4007 ;;      Locals:         0       0       0       0
  4008 ;;      Temps:         17       0       0       0
  4009 ;;      Totals:        17       0       0       0
  4010 ;;Total ram usage:       17 bytes
  4011 ;; Hardware stack levels used:    1
  4012 ;; Hardware stack levels required when called:    2
  4013 ;; This function calls:
  4014 ;;		Nothing
  4015 ;; This function is called by:
  4016 ;;		Interrupt level 1
  4017 ;; This function uses a non-reentrant model
  4018 ;;
  4019                           
  4020                           	psect	intcodelo
  4021  000018                     __pintcodelo:
  4022                           	opt stack 0
  4023  000018                     _low_isr:
  4024                           	opt stack 25
  4025                           
  4026                           ;incstack = 0
  4027  000018  803D               	bsf	btemp,0,c	;set compiler interrupt flag (level 1)
  4028  00001A  CFD8 F001          	movff	status,??_low_isr
  4029  00001E  CFE8 F002          	movff	wreg,??_low_isr+1
  4030  000022  CFE0 F003          	movff	bsr,??_low_isr+2
  4031  000026  CFFA F004          	movff	pclath,??_low_isr+3
  4032  00002A  CFFB F005          	movff	pclatu,??_low_isr+4
  4033  00002E  CFE9 F006          	movff	fsr0l,??_low_isr+5
  4034  000032  CFEA F007          	movff	fsr0h,??_low_isr+6
  4035  000036  CFE1 F008          	movff	fsr1l,??_low_isr+7
  4036  00003A  CFE2 F009          	movff	fsr1h,??_low_isr+8
  4037  00003E  CFD9 F00A          	movff	fsr2l,??_low_isr+9
  4038  000042  CFDA F00B          	movff	fsr2h,??_low_isr+10
  4039  000046  CFF3 F00C          	movff	prodl,??_low_isr+11
  4040  00004A  CFF4 F00D          	movff	prodh,??_low_isr+12
  4041  00004E  CFF6 F00E          	movff	tblptrl,??_low_isr+13
  4042  000052  CFF7 F00F          	movff	tblptrh,??_low_isr+14
  4043  000056  CFF8 F010          	movff	tblptru,??_low_isr+15
  4044  00005A  CFF5 F011          	movff	tablat,??_low_isr+16
  4045  00005E  C011  FFF5         	movff	??_low_isr+16,tablat
  4046  000062  C010  FFF8         	movff	??_low_isr+15,tblptru
  4047  000066  C00F  FFF7         	movff	??_low_isr+14,tblptrh
  4048  00006A  C00E  FFF6         	movff	??_low_isr+13,tblptrl
  4049  00006E  C00D  FFF4         	movff	??_low_isr+12,prodh
  4050  000072  C00C  FFF3         	movff	??_low_isr+11,prodl
  4051  000076  C00B  FFDA         	movff	??_low_isr+10,fsr2h
  4052  00007A  C00A  FFD9         	movff	??_low_isr+9,fsr2l
  4053  00007E  C009  FFE2         	movff	??_low_isr+8,fsr1h
  4054  000082  C008  FFE1         	movff	??_low_isr+7,fsr1l
  4055  000086  C007  FFEA         	movff	??_low_isr+6,fsr0h
  4056  00008A  C006  FFE9         	movff	??_low_isr+5,fsr0l
  4057  00008E  C005  FFFB         	movff	??_low_isr+4,pclatu
  4058  000092  C004  FFFA         	movff	??_low_isr+3,pclath
  4059  000096  C003  FFE0         	movff	??_low_isr+2,bsr
  4060  00009A  C002  FFE8         	movff	??_low_isr+1,wreg
  4061  00009E  C001  FFD8         	movff	??_low_isr,status
  4062  0000A2  903D               	bcf	btemp,0,c	;clear compiler interrupt flag (level 1)
  4063  0000A4  0010               	retfie	
  4064  0000A6                     __end_of_low_isr:
  4065                           	opt stack 0
  4066                           pclatu	equ	0xFFB
  4067                           pclath	equ	0xFFA
  4068                           tblptru	equ	0xFF8
  4069                           tblptrh	equ	0xFF7
  4070                           tblptrl	equ	0xFF6
  4071                           tablat	equ	0xFF5
  4072                           prodh	equ	0xFF4
  4073                           prodl	equ	0xFF3
  4074                           intcon	equ	0xFF2
  4075                           intcon2	equ	0xFF1
  4076                           intcon3	equ	0xFF0
  4077                           postinc0	equ	0xFEE
  4078                           fsr0h	equ	0xFEA
  4079                           fsr0l	equ	0xFE9
  4080                           wreg	equ	0xFE8
  4081                           postdec1	equ	0xFE5
  4082                           fsr1h	equ	0xFE2
  4083                           fsr1l	equ	0xFE1
  4084                           bsr	equ	0xFE0
  4085                           fsr2h	equ	0xFDA
  4086                           fsr2l	equ	0xFD9
  4087                           status	equ	0xFD8
  4088                           
  4089 ;; *************** function _high_isr *****************
  4090 ;; Defined at:
  4091 ;;		line 27 in file "interrupts.c"
  4092 ;; Parameters:    Size  Location     Type
  4093 ;;		None
  4094 ;; Auto vars:     Size  Location     Type
  4095 ;;		None
  4096 ;; Return value:  Size  Location     Type
  4097 ;;		None               void
  4098 ;; Registers used:
  4099 ;;		None
  4100 ;; Tracked objects:
  4101 ;;		On entry : 0/0
  4102 ;;		On exit  : 0/0
  4103 ;;		Unchanged: 0/0
  4104 ;; Data sizes:     COMRAM   BANK0   BANK1   BANK2
  4105 ;;      Params:         0       0       0       0
  4106 ;;      Locals:         0       0       0       0
  4107 ;;      Temps:         14       0       0       0
  4108 ;;      Totals:        14       0       0       0
  4109 ;;Total ram usage:       14 bytes
  4110 ;; Hardware stack levels used:    1
  4111 ;; This function calls:
  4112 ;;		Nothing
  4113 ;; This function is called by:
  4114 ;;		Interrupt level 2
  4115 ;; This function uses a non-reentrant model
  4116 ;;
  4117                           
  4118 ;; *************** function _stop *****************
  4119 ;; Defined at:
  4120 ;;		line 223 in file "main.c"
  4121 ;; Parameters:    Size  Location     Type
  4122 ;;		None
  4123 ;; Auto vars:     Size  Location     Type
  4124 ;;		None
  4125 ;; Return value:  Size  Location     Type
  4126 ;;		None               void
  4127 ;; Registers used:
  4128 ;;		wreg, status,2, status,0, cstack
  4129 ;; Tracked objects:
  4130 ;;		On entry : 0/0
  4131 ;;		On exit  : 0/0
  4132 ;;		Unchanged: 0/0
  4133 ;; Data sizes:     COMRAM   BANK0   BANK1   BANK2
  4134 ;;      Params:         0       0       0       0
  4135 ;;      Locals:         0       0       0       0
  4136 ;;      Temps:         15       0       0       0
  4137 ;;      Totals:        15       0       0       0
  4138 ;;Total ram usage:       15 bytes
  4139 ;; Hardware stack levels used:    1
  4140 ;; Hardware stack levels required when called:    1
  4141 ;; This function calls:
  4142 ;;		_CCP4_SetCompareCount
  4143 ;; This function is called by:
  4144 ;;		Interrupt level 2
  4145 ;; This function uses a non-reentrant model
  4146 ;;
  4147                           
  4148                           	psect	intcode
  4149  000008                     __pintcode:
  4150                           	opt stack 0
  4151  000008                     _high_isr:
  4152                           	opt stack 26
  4153                           
  4154                           ;incstack = 0
  4155  000008  823D               	bsf	btemp,1,c	;set compiler interrupt flag (level 2)
  4156  00000A  CFFA F012          	movff	pclath,??_high_isr
  4157  00000E  CFFB F013          	movff	pclatu,??_high_isr+1
  4158  000012  CFE9 F014          	movff	fsr0l,??_high_isr+2
  4159  000016  CFEA F015          	movff	fsr0h,??_high_isr+3
  4160  00001A  CFE1 F016          	movff	fsr1l,??_high_isr+4
  4161  00001E  CFE2 F017          	movff	fsr1h,??_high_isr+5
  4162  000022  CFD9 F018          	movff	fsr2l,??_high_isr+6
  4163  000026  CFDA F019          	movff	fsr2h,??_high_isr+7
  4164  00002A  CFF3 F01A          	movff	prodl,??_high_isr+8
  4165  00002E  CFF4 F01B          	movff	prodh,??_high_isr+9
  4166  000032  CFF6 F01C          	movff	tblptrl,??_high_isr+10
  4167  000036  CFF7 F01D          	movff	tblptrh,??_high_isr+11
  4168  00003A  CFF8 F01E          	movff	tblptru,??_high_isr+12
  4169  00003E  CFF5 F01F          	movff	tablat,??_high_isr+13
  4170  000042  C01F  FFF5         	movff	??_high_isr+13,tablat
  4171  000046  C01E  FFF8         	movff	??_high_isr+12,tblptru
  4172  00004A  C01D  FFF7         	movff	??_high_isr+11,tblptrh
  4173  00004E  C01C  FFF6         	movff	??_high_isr+10,tblptrl
  4174  000052  C01B  FFF4         	movff	??_high_isr+9,prodh
  4175  000056  C01A  FFF3         	movff	??_high_isr+8,prodl
  4176  00005A  C019  FFDA         	movff	??_high_isr+7,fsr2h
  4177  00005E  C018  FFD9         	movff	??_high_isr+6,fsr2l
  4178  000062  C017  FFE2         	movff	??_high_isr+5,fsr1h
  4179  000066  C016  FFE1         	movff	??_high_isr+4,fsr1l
  4180  00006A  C015  FFEA         	movff	??_high_isr+3,fsr0h
  4181  00006E  C014  FFE9         	movff	??_high_isr+2,fsr0l
  4182  000072  C013  FFFB         	movff	??_high_isr+1,pclatu
  4183  000076  C012  FFFA         	movff	??_high_isr,pclath
  4184  00007A  923D               	bcf	btemp,1,c	;clear compiler interrupt flag (level 2)
  4185  00007C  0011               	retfie		f
  4186  00007E                     __end_of_high_isr:
  4187                           	opt stack 0
  4188  00007E                     _stop:
  4189                           	opt stack 25
  4190                           
  4191                           ;incstack = 0
  4192  00007E  823D               	bsf	btemp,1,c	;set compiler interrupt flag (level 2)
  4193  000080  CFFA F025          	movff	pclath,??_stop+1
  4194  000084  CFFB F026          	movff	pclatu,??_stop+2
  4195  000088  EF6C  F004         	goto	int_func
  4196                           pclatu	equ	0xFFB
  4197                           pclath	equ	0xFFA
  4198                           tblptru	equ	0xFF8
  4199                           tblptrh	equ	0xFF7
  4200                           tblptrl	equ	0xFF6
  4201                           tablat	equ	0xFF5
  4202                           prodh	equ	0xFF4
  4203                           prodl	equ	0xFF3
  4204                           intcon	equ	0xFF2
  4205                           intcon2	equ	0xFF1
  4206                           intcon3	equ	0xFF0
  4207                           postinc0	equ	0xFEE
  4208                           fsr0h	equ	0xFEA
  4209                           fsr0l	equ	0xFE9
  4210                           wreg	equ	0xFE8
  4211                           postdec1	equ	0xFE5
  4212                           fsr1h	equ	0xFE2
  4213                           fsr1l	equ	0xFE1
  4214                           bsr	equ	0xFE0
  4215                           fsr2h	equ	0xFDA
  4216                           fsr2l	equ	0xFD9
  4217                           status	equ	0xFD8
  4218                           
  4219                           	psect	intcode_body
  4220  0008D8                     __pintcode_body:
  4221                           	opt stack 25
  4222  0008D8                     int_func:
  4223                           	opt stack 25
  4224  0008D8  CFE9 F027          	movff	fsr0l,??_stop+3
  4225  0008DC  CFEA F028          	movff	fsr0h,??_stop+4
  4226  0008E0  CFE1 F029          	movff	fsr1l,??_stop+5
  4227  0008E4  CFE2 F02A          	movff	fsr1h,??_stop+6
  4228  0008E8  CFD9 F02B          	movff	fsr2l,??_stop+7
  4229  0008EC  CFDA F02C          	movff	fsr2h,??_stop+8
  4230  0008F0  CFF3 F02D          	movff	prodl,??_stop+9
  4231  0008F4  CFF4 F02E          	movff	prodh,??_stop+10
  4232  0008F8  CFF6 F02F          	movff	tblptrl,??_stop+11
  4233  0008FC  CFF7 F030          	movff	tblptrh,??_stop+12
  4234  000900  CFF8 F031          	movff	tblptru,??_stop+13
  4235  000904  CFF5 F032          	movff	tablat,??_stop+14
  4236                           
  4237                           ;main.c: 225: if(INT1IE && INT1IF){
  4238  000908  B6F0               	btfsc	intcon3,3,c	;volatile
  4239  00090A  A0F0               	btfss	intcon3,0,c	;volatile
  4240  00090C  D01C               	goto	i2l498
  4241                           
  4242                           ;main.c: 226: CCP4_SetCompareCount(800);
  4243  00090E  0E03               	movlw	3
  4244  000910  6E21               	movwf	CCP4_SetCompareCount@compareCount+1,c
  4245  000912  0E20               	movlw	32
  4246  000914  6E20               	movwf	CCP4_SetCompareCount@compareCount,c
  4247  000916  EC50  F006         	call	_CCP4_SetCompareCount	;wreg free
  4248                           
  4249                           ;main.c: 227: T1CONbits.TMR1ON = 1;
  4250  00091A  80CD               	bsf	4045,0,c	;volatile
  4251                           
  4252                           ;main.c: 228: LATC0 = 0;
  4253  00091C  908B               	bcf	3979,0,c	;volatile
  4254                           
  4255                           ;main.c: 229: for(i=0; i<100; i++){
  4256  00091E  0E00               	movlw	0
  4257  000920  6E3A               	movwf	_i+1,c
  4258  000922  0E00               	movlw	0
  4259  000924  6E39               	movwf	_i,c
  4260  000926                     i2l2112:
  4261  000926  503A               	movf	_i+1,w,c
  4262  000928  E10E               	bnz	i2l498
  4263  00092A  0E64               	movlw	100
  4264  00092C  5C39               	subwf	_i,w,c
  4265  00092E  B0D8               	btfsc	status,0,c
  4266  000930  D00A               	goto	i2l498
  4267                           
  4268                           ;main.c: 230: _delay((unsigned long)((10)*(64000000/4000.0)));
  4269  000932  0ED0               	movlw	208
  4270  000934  6E24               	movwf	??_stop& (0+255),c
  4271  000936  0ECA               	movlw	202
  4272  000938                     i2u125_47:
  4273  000938  2EE8               	decfsz	wreg,f,c
  4274  00093A  D7FE               	goto	i2u125_47
  4275  00093C  2E24               	decfsz	??_stop& (0+255),f,c
  4276  00093E  D7FC               	goto	i2u125_47
  4277  000940  4A39               	infsnz	_i,f,c
  4278  000942  2A3A               	incf	_i+1,f,c
  4279  000944  D7F0               	goto	i2l2112
  4280  000946                     i2l498:
  4281  000946  C032  FFF5         	movff	??_stop+14,tablat
  4282  00094A  C031  FFF8         	movff	??_stop+13,tblptru
  4283  00094E  C030  FFF7         	movff	??_stop+12,tblptrh
  4284  000952  C02F  FFF6         	movff	??_stop+11,tblptrl
  4285  000956  C02E  FFF4         	movff	??_stop+10,prodh
  4286  00095A  C02D  FFF3         	movff	??_stop+9,prodl
  4287  00095E  C02C  FFDA         	movff	??_stop+8,fsr2h
  4288  000962  C02B  FFD9         	movff	??_stop+7,fsr2l
  4289  000966  C02A  FFE2         	movff	??_stop+6,fsr1h
  4290  00096A  C029  FFE1         	movff	??_stop+5,fsr1l
  4291  00096E  C028  FFEA         	movff	??_stop+4,fsr0h
  4292  000972  C027  FFE9         	movff	??_stop+3,fsr0l
  4293  000976  C026  FFFB         	movff	??_stop+2,pclatu
  4294  00097A  C025  FFFA         	movff	??_stop+1,pclath
  4295  00097E  923D               	bcf	btemp,1,c	;clear compiler interrupt flag (level 2)
  4296  000980  0011               	retfie		f
  4297  000982                     __end_of_stop:
  4298                           	opt stack 0
  4299                           pclatu	equ	0xFFB
  4300                           pclath	equ	0xFFA
  4301                           tblptru	equ	0xFF8
  4302                           tblptrh	equ	0xFF7
  4303                           tblptrl	equ	0xFF6
  4304                           tablat	equ	0xFF5
  4305                           prodh	equ	0xFF4
  4306                           prodl	equ	0xFF3
  4307                           intcon	equ	0xFF2
  4308                           intcon2	equ	0xFF1
  4309                           intcon3	equ	0xFF0
  4310                           postinc0	equ	0xFEE
  4311                           fsr0h	equ	0xFEA
  4312                           fsr0l	equ	0xFE9
  4313                           wreg	equ	0xFE8
  4314                           postdec1	equ	0xFE5
  4315                           fsr1h	equ	0xFE2
  4316                           fsr1l	equ	0xFE1
  4317                           bsr	equ	0xFE0
  4318                           fsr2h	equ	0xFDA
  4319                           fsr2l	equ	0xFD9
  4320                           status	equ	0xFD8
  4321                           
  4322 ;; *************** function _CCP4_SetCompareCount *****************
  4323 ;; Defined at:
  4324 ;;		line 75 in file "mcc_generated_files/ccp4.c"
  4325 ;; Parameters:    Size  Location     Type
  4326 ;;  compareCount    2   31[COMRAM] unsigned int 
  4327 ;; Auto vars:     Size  Location     Type
  4328 ;;  module          2   33[COMRAM] struct CCPR4Reg_tag
  4329 ;; Return value:  Size  Location     Type
  4330 ;;		None               void
  4331 ;; Registers used:
  4332 ;;		None
  4333 ;; Tracked objects:
  4334 ;;		On entry : 0/0
  4335 ;;		On exit  : 0/0
  4336 ;;		Unchanged: 0/0
  4337 ;; Data sizes:     COMRAM   BANK0   BANK1   BANK2
  4338 ;;      Params:         2       0       0       0
  4339 ;;      Locals:         2       0       0       0
  4340 ;;      Temps:          0       0       0       0
  4341 ;;      Totals:         4       0       0       0
  4342 ;;Total ram usage:        4 bytes
  4343 ;; Hardware stack levels used:    1
  4344 ;; This function calls:
  4345 ;;		Nothing
  4346 ;; This function is called by:
  4347 ;;		_stop
  4348 ;;		_suonaBuzzer_1
  4349 ;; This function uses a non-reentrant model
  4350 ;;
  4351                           
  4352                           	psect	text28
  4353  000CA0                     __ptext28:
  4354                           	opt stack 0
  4355  000CA0                     _CCP4_SetCompareCount:
  4356                           	opt stack 25
  4357                           
  4358                           ;ccp4.c: 77: CCP_PERIOD_REG_T module;
  4359                           ;ccp4.c: 80: module.ccpr4_16Bit = compareCount;
  4360                           
  4361                           ;incstack = 0
  4362  000CA0  C020  F022         	movff	CCP4_SetCompareCount@compareCount,CCP4_SetCompareCount@module
  4363  000CA4  C021  F023         	movff	CCP4_SetCompareCount@compareCount+1,CCP4_SetCompareCount@module+1
  4364                           
  4365                           ;ccp4.c: 82: CCPR4L = module.ccpr4l;
  4366  000CA8  C022  FF58         	movff	CCP4_SetCompareCount@module,3928	;volatile
  4367                           
  4368                           ;ccp4.c: 83: CCPR4H = module.ccpr4h;
  4369  000CAC  C023  FF59         	movff	CCP4_SetCompareCount@module+1,3929	;volatile
  4370  000CB0  0012               	return		;funcret
  4371  000CB2                     __end_of_CCP4_SetCompareCount:
  4372                           	opt stack 0
  4373  0000                     pclatu	equ	0xFFB
  4374                           pclath	equ	0xFFA
  4375                           tblptru	equ	0xFF8
  4376                           tblptrh	equ	0xFF7
  4377                           tblptrl	equ	0xFF6
  4378                           tablat	equ	0xFF5
  4379                           prodh	equ	0xFF4
  4380                           prodl	equ	0xFF3
  4381                           intcon	equ	0xFF2
  4382                           intcon2	equ	0xFF1
  4383                           intcon3	equ	0xFF0
  4384                           postinc0	equ	0xFEE
  4385                           fsr0h	equ	0xFEA
  4386                           fsr0l	equ	0xFE9
  4387                           wreg	equ	0xFE8
  4388                           postdec1	equ	0xFE5
  4389                           fsr1h	equ	0xFE2
  4390                           fsr1l	equ	0xFE1
  4391                           bsr	equ	0xFE0
  4392                           fsr2h	equ	0xFDA
  4393                           fsr2l	equ	0xFD9
  4394                           status	equ	0xFD8
  4395                           pclatu	equ	0xFFB
  4396                           pclath	equ	0xFFA
  4397                           tblptru	equ	0xFF8
  4398                           tblptrh	equ	0xFF7
  4399                           tblptrl	equ	0xFF6
  4400                           tablat	equ	0xFF5
  4401                           prodh	equ	0xFF4
  4402                           prodl	equ	0xFF3
  4403                           intcon	equ	0xFF2
  4404                           intcon2	equ	0xFF1
  4405                           intcon3	equ	0xFF0
  4406                           postinc0	equ	0xFEE
  4407                           fsr0h	equ	0xFEA
  4408                           fsr0l	equ	0xFE9
  4409                           wreg	equ	0xFE8
  4410                           postdec1	equ	0xFE5
  4411                           fsr1h	equ	0xFE2
  4412                           fsr1l	equ	0xFE1
  4413                           bsr	equ	0xFE0
  4414                           fsr2h	equ	0xFDA
  4415                           fsr2l	equ	0xFD9
  4416                           status	equ	0xFD8
  4417                           
  4418                           	psect	rparam
  4419  0000                     pclatu	equ	0xFFB
  4420                           pclath	equ	0xFFA
  4421                           tblptru	equ	0xFF8
  4422                           tblptrh	equ	0xFF7
  4423                           tblptrl	equ	0xFF6
  4424                           tablat	equ	0xFF5
  4425                           prodh	equ	0xFF4
  4426                           prodl	equ	0xFF3
  4427                           intcon	equ	0xFF2
  4428                           intcon2	equ	0xFF1
  4429                           intcon3	equ	0xFF0
  4430                           postinc0	equ	0xFEE
  4431                           fsr0h	equ	0xFEA
  4432                           fsr0l	equ	0xFE9
  4433                           wreg	equ	0xFE8
  4434                           postdec1	equ	0xFE5
  4435                           fsr1h	equ	0xFE2
  4436                           fsr1l	equ	0xFE1
  4437                           bsr	equ	0xFE0
  4438                           fsr2h	equ	0xFDA
  4439                           fsr2l	equ	0xFD9
  4440                           status	equ	0xFD8
  4441                           
  4442                           	psect	temp
  4443  00003D                     btemp:
  4444                           	opt stack 0
  4445  00003D                     	ds	1
  4446  0000                     int$flags	set	btemp
  4447                           pclatu	equ	0xFFB
  4448                           pclath	equ	0xFFA
  4449                           tblptru	equ	0xFF8
  4450                           tblptrh	equ	0xFF7
  4451                           tblptrl	equ	0xFF6
  4452                           tablat	equ	0xFF5
  4453                           prodh	equ	0xFF4
  4454                           prodl	equ	0xFF3
  4455                           intcon	equ	0xFF2
  4456                           intcon2	equ	0xFF1
  4457                           intcon3	equ	0xFF0
  4458                           postinc0	equ	0xFEE
  4459                           fsr0h	equ	0xFEA
  4460                           fsr0l	equ	0xFE9
  4461                           wreg	equ	0xFE8
  4462                           postdec1	equ	0xFE5
  4463                           fsr1h	equ	0xFE2
  4464                           fsr1l	equ	0xFE1
  4465                           bsr	equ	0xFE0
  4466                           fsr2h	equ	0xFDA
  4467                           fsr2l	equ	0xFD9
  4468                           status	equ	0xFD8


Data Sizes:
    Strings     0
    Constant    0
    Data        4
    BSS         22
    Persistent  4
    Stack       0

Auto Spaces:
    Space          Size  Autos    Used
    COMRAM           94     50      60
    BANK0           160     26      46
    BANK1           256      0       0
    BANK2           256      0       0

Pointer List with Targets:

    None.

Critical Paths under _main in COMRAM

    None.

Critical Paths under _high_isr in COMRAM

    None.

Critical Paths under _stop in COMRAM

    _stop->_CCP4_SetCompareCount

Critical Paths under _low_isr in COMRAM

    None.

Critical Paths under _main in BANK0

    _main->_taratura
    _taratura->_delay_mS
    _stopM->_EPWM1_LoadDutyValue
    _stopM->_EPWM2_LoadDutyValue
    _seguiLinea->_ADC_GetConversion
    _controllaColore->_delay_mS
    _delay_mS->___lwdiv
    ___lwdiv->_ADC_GetConversion

Critical Paths under _high_isr in BANK0

    None.

Critical Paths under _stop in BANK0

    None.

Critical Paths under _low_isr in BANK0

    None.

Critical Paths under _main in BANK1

    None.

Critical Paths under _high_isr in BANK1

    None.

Critical Paths under _stop in BANK1

    None.

Critical Paths under _low_isr in BANK1

    None.

Critical Paths under _main in BANK2

    None.

Critical Paths under _high_isr in BANK2

    None.

Critical Paths under _stop in BANK2

    None.

Critical Paths under _low_isr in BANK2

    None.

Call Graph Tables:

 ---------------------------------------------------------------------------------
 (Depth) Function   	        Calls       Base Space   Used Autos Params    Refs
 ---------------------------------------------------------------------------------
 (0) _main                                                 7     7      0    7460
                                             19 BANK0      7     7      0
                  _ADC_GetConversion
                _EPWM1_LoadDutyValue
                _EPWM2_LoadDutyValue
                            _InitApp
              _OSCILLATOR_Initialize
                  _SYSTEM_Initialize
                    _abbassaCarrello
                          _checkBatt
                    _controllaColore
                           _delay_mS
                         _seguiLinea
                    _sollevaCarrello
                              _stopM
                           _taratura
 ---------------------------------------------------------------------------------
 (1) _taratura                                             4     4      0    1122
                                             15 BANK0      4     4      0
                  _ADC_GetConversion
                            ___lwdiv
                           _delay_mS
 ---------------------------------------------------------------------------------
 (1) _stopM                                                1     1      0    1464
                                              4 BANK0      1     1      0
                _EPWM1_LoadDutyValue
                _EPWM2_LoadDutyValue
 ---------------------------------------------------------------------------------
 (1) _sollevaCarrello                                      2     2      0      47
                                              0 BANK0      2     2      0
 ---------------------------------------------------------------------------------
 (1) _seguiLinea                                           2     2      0    1532
                                              5 BANK0      2     2      0
                  _ADC_GetConversion
                _EPWM1_LoadDutyValue
                _EPWM2_LoadDutyValue
 ---------------------------------------------------------------------------------
 (2) _EPWM2_LoadDutyValue                                  4     2      2     732
                                              0 BANK0      4     2      2
 ---------------------------------------------------------------------------------
 (2) _EPWM1_LoadDutyValue                                  4     2      2     732
                                              0 BANK0      4     2      2
 ---------------------------------------------------------------------------------
 (1) _controllaColore                                      1     1      0     765
                                             15 BANK0      1     1      0
                  _ADC_GetConversion
                           _delay_mS
 ---------------------------------------------------------------------------------
 (2) _delay_mS                                             3     1      2     743
                                             12 BANK0      3     1      2
                            ___lwdiv
                          _checkBatt
 ---------------------------------------------------------------------------------
 (3) _checkBatt                                            0     0      0       0
 ---------------------------------------------------------------------------------
 (3) ___lwdiv                                              7     3      4     334
                                              5 BANK0      7     3      4
                  _ADC_GetConversion (ARG)
 ---------------------------------------------------------------------------------
 (2) _ADC_GetConversion                                    5     3      2      22
                                              0 BANK0      5     3      2
 ---------------------------------------------------------------------------------
 (1) _abbassaCarrello                                      3     3      0      47
                                              0 BANK0      3     3      0
 ---------------------------------------------------------------------------------
 (1) _SYSTEM_Initialize                                    0     0      0       0
                     _ADC_Initialize
                    _CCP4_Initialize
                   _EPWM1_Initialize
                   _EPWM2_Initialize
              _OSCILLATOR_Initialize
             _PIN_MANAGER_Initialize
                    _TMR1_Initialize
                    _TMR2_Initialize
 ---------------------------------------------------------------------------------
 (2) _TMR2_Initialize                                      0     0      0       0
                    _TMR2_StartTimer
 ---------------------------------------------------------------------------------
 (3) _TMR2_StartTimer                                      0     0      0       0
 ---------------------------------------------------------------------------------
 (2) _TMR1_Initialize                                      0     0      0       0
                    _TMR1_StartTimer
 ---------------------------------------------------------------------------------
 (3) _TMR1_StartTimer                                      0     0      0       0
 ---------------------------------------------------------------------------------
 (2) _PIN_MANAGER_Initialize                               0     0      0       0
 ---------------------------------------------------------------------------------
 (2) _OSCILLATOR_Initialize                                0     0      0       0
 ---------------------------------------------------------------------------------
 (2) _EPWM2_Initialize                                     0     0      0       0
 ---------------------------------------------------------------------------------
 (2) _EPWM1_Initialize                                     0     0      0       0
 ---------------------------------------------------------------------------------
 (2) _CCP4_Initialize                                      0     0      0       0
 ---------------------------------------------------------------------------------
 (2) _ADC_Initialize                                       0     0      0       0
 ---------------------------------------------------------------------------------
 (1) _InitApp                                              0     0      0       0
 ---------------------------------------------------------------------------------
 Estimated maximum stack depth 3
 ---------------------------------------------------------------------------------
 (Depth) Function   	        Calls       Base Space   Used Autos Params    Refs
 ---------------------------------------------------------------------------------
 (4) _low_isr                                             17    17      0       0
                                              0 COMRAM    17    17      0
 ---------------------------------------------------------------------------------
 Estimated maximum stack depth 4
 ---------------------------------------------------------------------------------
 (Depth) Function   	        Calls       Base Space   Used Autos Params    Refs
 ---------------------------------------------------------------------------------
 (5) _high_isr                                            14    14      0       0
                                             17 COMRAM    14    14      0
 ---------------------------------------------------------------------------------
 Estimated maximum stack depth 5
 ---------------------------------------------------------------------------------
 (Depth) Function   	        Calls       Base Space   Used Autos Params    Refs
 ---------------------------------------------------------------------------------
 (5) _stop                                                15    15      0     154
                                             35 COMRAM    15    15      0
               _CCP4_SetCompareCount
 ---------------------------------------------------------------------------------
 (6) _CCP4_SetCompareCount                                 4     2      2     154
                                             31 COMRAM     4     2      2
 ---------------------------------------------------------------------------------
 Estimated maximum stack depth 6
 ---------------------------------------------------------------------------------

 Call Graph Graphs:

 _main (ROOT)
   _ADC_GetConversion
   _EPWM1_LoadDutyValue
   _EPWM2_LoadDutyValue
   _InitApp
   _OSCILLATOR_Initialize
   _SYSTEM_Initialize
     _ADC_Initialize
     _CCP4_Initialize
     _EPWM1_Initialize
     _EPWM2_Initialize
     _OSCILLATOR_Initialize
     _PIN_MANAGER_Initialize
     _TMR1_Initialize
       _TMR1_StartTimer
     _TMR2_Initialize
       _TMR2_StartTimer
   _abbassaCarrello
   _checkBatt
   _controllaColore
     _ADC_GetConversion
     _delay_mS
       ___lwdiv
         _ADC_GetConversion (ARG)
       _checkBatt
   _delay_mS
     ___lwdiv
       _ADC_GetConversion (ARG)
     _checkBatt
   _seguiLinea
     _ADC_GetConversion
     _EPWM1_LoadDutyValue
     _EPWM2_LoadDutyValue
   _sollevaCarrello
   _stopM
     _EPWM1_LoadDutyValue
     _EPWM2_LoadDutyValue
   _taratura
     _ADC_GetConversion
     ___lwdiv
       _ADC_GetConversion (ARG)
     _delay_mS
       ___lwdiv
         _ADC_GetConversion (ARG)
       _checkBatt

 _low_isr (ROOT)

 _high_isr (ROOT)

 _stop (ROOT)
   _CCP4_SetCompareCount

 Address spaces:
Name               Size   Autos  Total    Cost      Usage
BIGRAM             2FF      0       0      10        0.0%
EEDATA             100      0       0       0        0.0%
BITBANK2           100      0       0       6        0.0%
BANK2              100      0       0       7        0.0%
BITBANK1           100      0       0       9        0.0%
BANK1              100      0       0       5        0.0%
BITBANK0            A0      0       0       3        0.0%
BANK0               A0     1A      2E       4       28.8%
BITCOMRAM           5E      0       0       0        0.0%
COMRAM              5E     32      3C       1       63.8%
BITSFR_1             0      0       0      40        0.0%
SFR_1                0      0       0      40        0.0%
BITSFR               0      0       0      40        0.0%
SFR                  0      0       0      40        0.0%
STACK                0      0       0       2        0.0%
NULL                 0      0       0       0        0.0%
ABS                  0      0      6A       8        0.0%
DATA                 0      0      6A      11        0.0%
CODE                 0      0       0       0        0.0%


Microchip Technology PIC18 Macro Assembler V1.35 build -356382666 
Symbol Table                                                                                   Sat Oct 24 16:44:03 2015

                 _CCP4_Initialize 0C5E      __size_of_EPWM2_LoadDutyValue 003C  
                               _T 007A                                 _i 0039  
                              bsr 000FE0                      __CFG_CP0$OFF 000000  
                    __CFG_CP1$OFF 000000                               l222 0AB8  
                             l330 086C                               l322 08CA  
                             l331 0874                               l332 087A  
                             l325 0854                               l327 0858  
                             l328 0860                               l329 0866  
                             l362 076C                               l363 0814  
                             l357 06AA                               l358 0752  
                             l470 01A4                               l901 09F0  
                    __CFG_CPB$OFF 000000                               _PR2 000FBB  
                             u600 052A                      __CFG_CPD$OFF 000000  
                             u590 0504                   _timer1ReloadVal 003B  
                 _TMR2_Initialize 0C8E                               wreg 000FE8  
        __end_of_EPWM2_Initialize 0C20          __size_of_controllaColore 00E8  
                    __CFG_LVP$OFF 000000                              l2020 025A  
                            l2040 02BA                              l2024 0264  
                            l2008 01E4                              l2044 02C4  
                            l2028 027A                              l2052 02E6  
                            l2080 03B0                              l2072 032E  
                            l2064 0314                              l2048 02DA  
                            l2180 089A                              l2092 041E  
                            l2182 08BE                              l2086 03EA  
                            l1800 0880                              l1670 09A0  
                            l1742 0A3E                              l1672 09AC  
                            l1736 0A24                              l1840 068C  
                            l1682 09E2                              l1674 09B2  
                            l1834 065C                              l1762 04E4  
                            l1836 0664                              l1780 0566  
                            l1772 053E                              l1756 04B2  
                            l1852 06A0                              l1790 0594  
                            l1776 055C                              l1768 051A  
                            l1796 082E                              l1886 0762  
                            l1992 017E                              l1968 00EE  
                            l1986 015A                              l1978 0126  
                            l1998 01AE                              u1017 01C6  
                            u1107 06F4                              u1027 026C  
                            u1117 070C                              u1037 02CC  
                            u1207 07B6                              u1127 071C  
                            u1047 031C                              u1217 07CE  
                            u1137 0734                              u1057 0AFA  
                            u1227 07DE                              u1147 0744  
                            u1067 0B0A                              u1237 07F6  
                            u1157 056E                              u1077 06BC  
                            _LATA 000F89                              _LATB 000F8A  
                            u1247 0806                              u1167 0A2C  
                            u1087 06CC                              _LATC 000F8B  
                            u1177 077E                              u1097 06E4  
                            u1187 078E                              u1197 07A6  
                            _TMR1 000FCE                              _TMR2 000FBC  
          ??_CCP4_SetCompareCount 0022                              _WPUB 000F61  
                            _main 00AA                              fsr0h 000FEA  
                            fsr1h 000FE2                              fsr0l 000FE9  
                            fsr2h 000FDA                              fsr1l 000FE1  
                            fsr2l 000FD9                              btemp 003D  
                            _stop 007E                     __CFG_BORV$190 000000  
                            pclat 000FFA                              prodh 000FF4  
                            prodl 000FF3                 taratura@v_sensori 0071  
                            start 00A6                     __CFG_IESO$OFF 000000  
           ??_EPWM1_LoadDutyValue 0062                      ___param_bank 000010  
                 __end_of_InitApp 0C5E    __size_of_OSCILLATOR_Initialize 000E  
   __end_of_OSCILLATOR_Initialize 0CC0                             ?_main 0001  
                 _TMR1_StartTimer 0CC8                             ?_stop 0001  
                 _sollevaCarrello 0694                             _T1CON 000FCD  
                           _T2CON 000FBA                             _LATA0 007C48  
                           _LATA1 007C49                             _LATA2 007C4A  
                           _LATA3 007C4B                             _LATC0 007C58  
                           _LATA4 007C4C                             _LATC3 007C5B  
                           _LATC4 007C5C                             _LATC5 007C5D  
                           _LATC6 007C5E                             _LATC7 007C5F  
                  __CFG_DEBUG$OFF 000000                   __end_of___lwdiv 09FA  
                           i2l498 0946                             _TMR1H 000FCF  
                           _TMR1L 000FCE                             _TRISA 000F92  
                           _TRISB 000F93                             _TRISC 000F94  
                   __CFG_WRT0$OFF 000000                     __CFG_WRT1$OFF 000000  
                  __CFG_EBTR0$OFF 000000                    __CFG_FCMEN$OFF 000000  
                  __CFG_EBTR1$OFF 000000                     __CFG_WRTB$OFF 000000  
                   __CFG_WRTC$OFF 000000                     __CFG_WRTD$OFF 000000  
                           _bluPC 007C                    __CFG_EBTRB$OFF 000000  
                    main@numLinee 0074                __CFG_MCLRE$EXTMCLR 000000  
                           main@T 0077                             _stopM 0ADA  
                           main@t 0075           __end_of_TMR1_Initialize 0C00  
                 __end_of_low_isr 00A6                             tablat 000FF5  
                           status 000FD8           __end_of_CCP4_Initialize 0C78  
                  __CFG_HFOFST$ON 000000                   _TMR2_StartTimer 0CC4  
                  __CFG_PBADEN$ON 000000                   __initialization 0A54  
                    __end_of_main 0492                      __end_of_stop 0982  
         __end_of_TMR2_Initialize 0CA0                            ??_main 0073  
                          ??_stop 0024                     __activetblptr 000002  
                          _ADCON0 000FC2                            _ADCON1 000FC1  
                          _ADCON2 000FC0                            _ADRESH 000FC4  
                          _ADRESL 000FC3                            _CCPR1H 000FBF  
                          _CCPR2H 000F68                            _CCPR1L 000FBE  
                          _CCPR2L 000F67                            _CCPR4H 000F59  
                          _CCPR4L 000F58        CCP4_SetCompareCount@module 0022  
                          _ANSELA 000F38                            _ANSELB 000F39  
                          _ANSELC 000F3A                            ?_stopM 0001  
                          _T1GCON 000FCC                            _INT1IE 007F83  
                          _INT1IF 007F80                            _INT1IP 007F86  
                          i2l2112 0926                    __CFG_WDTEN$OFF 000000  
                          _OSCCON 000FD3                 ??_controllaColore 006F  
                       ??_InitApp 0060                        _V_frontale 0035  
                __end_of_delay_mS 0A54                    __CFG_XINST$OFF 000000  
                          _V_batt 0033                      _CCPTMRS0bits 000F49  
                    _CCPTMRS1bits 000F48                  __end_of_high_isr 007E  
         __end_of_TMR1_StartTimer 0CCC           __end_of_sollevaCarrello 0756  
                  __CFG_STVREN$ON 000000                            _deltaV 007E  
                       ??___lwdiv 0069                            _colore 0086  
                          clear_0 0A5A                            clear_1 0A66  
                          _vel_DX 0088                            _vel_SX 008A  
        __size_of_abbassaCarrello 00C2                  __end_of_taratura 08D8  
                       ??_low_isr 0001                            tblptrh 000FF7  
                          tblptrl 000FF6                            tblptru 000FF8  
        ADC_GetConversion@channel 0064               _EPWM2_LoadDutyValue 0B16  
         __end_of_TMR2_StartTimer 0CC8                  ?_TMR1_Initialize 0001  
               _SYSTEM_Initialize 0BBE                        __accesstop 0060  
         __end_of__initialization 0A8C                  ?_CCP4_Initialize 0001  
              ?_SYSTEM_Initialize 0001                     ___rparam_used 000001  
               ?_EPWM1_Initialize 0001                    __pcstackCOMRAM 0001  
            ?_EPWM2_LoadDutyValue 0060                      __pidataBANK0 0CC0  
              __size_of_checkBatt 0002               ??_SYSTEM_Initialize 0060  
              ??_EPWM1_Initialize 0060                     __end_of_stopM 0B16  
                ?_TMR2_Initialize 0001                 ?_EPWM2_Initialize 0001  
       __end_of_SYSTEM_Initialize 0BE0                ??_EPWM2_Initialize 0060  
                         ??_stopM 0064                        __pbssBANK0 007A  
                 __CFG_PLLCFG$OFF 000000                        __pnvCOMRAM 003B  
              __CFG_CCP2MX$PORTC1 000000             ??_EPWM2_LoadDutyValue 0062  
                ?_TMR1_StartTimer 0001                  ?_sollevaCarrello 0001  
              __CFG_CCP3MX$PORTB5 000000                           _CCP1CON 000FBD  
                         _CCP2CON 000F66                           _CCP4CON 000F57  
                         _ECCP1AS 000FB6                           _ECCP2AS 000F64  
         __size_of_ADC_Initialize 0016                           _INTEDG1 007F8D  
                         _OSCCON2 000FD2                         ?_delay_mS 006C  
               __CFG_PRICLKEN$OFF 000000                           _OSCTUNE 000F9B  
                         _PWM1CON 000FB7                           _PWM2CON 000F65  
               ??_abbassaCarrello 0060                 __end_of_checkBatt 0CCE  
                ?_TMR2_StartTimer 0001                        _goal_color 0087  
                       ?_high_isr 0001       __end_of_EPWM1_LoadDutyValue 0B8E  
                     seguiLinea@T 0066     __size_of_CCP4_SetCompareCount 0012  
                         _InitApp 0C40                   __CFG_PWRTEN$OFF 000000  
                         __Hparam 0000                           __Lparam 0000  
                       ?_taratura 0001                           ___lwdiv 0982  
                         __pcinit 0A54                           __ramtop 0300  
                         __ptext0 00AA                           __ptext1 0818  
                         __ptext2 0ADA                           __ptext3 0694  
                         __ptext4 0492                           __ptext5 0B16  
                         __ptext6 0B52                           __ptext7 05AC  
                         __ptext8 09FA                           __ptext9 0CCC  
                       _T1CONbits 000FCD             _OSCILLATOR_Initialize 0CB2  
                       _T2CONbits 000FBA                           _msec_10 0080  
                 _controllaColore 05AC          ??_PIN_MANAGER_Initialize 0060  
                      ??_delay_mS 006E                           _low_isr 0018  
                         _verdePC 0084                           _rossoPC 0082  
      __size_of_SYSTEM_Initialize 0022                        ??_high_isr 0012  
                  __pintcode_body 08D8              end_of_initialization 0A8C  
                   __Lmediumconst 0000                           int_func 08D8  
                      _seguiLinea 0492                        ??_taratura 006F  
                         postdec1 000FE5                           postinc0 000FEE  
                       _PORTBbits 000F81                        main@T_1274 0079  
                       _TRISAbits 000F92                         _TRISBbits 000F93  
                      main@t_1273 0076                     delay_mS@m_sec 006C  
                sollevaCarrello@p 0061           __end_of_controllaColore 0694  
                  _ADC_Initialize 0C78            ?_OSCILLATOR_Initialize 0001  
             start_initialization 0A54         __size_of_EPWM1_Initialize 0020  
 __size_of_PIN_MANAGER_Initialize 0030      EPWM1_LoadDutyValue@dutyValue 0060  
                     ?_seguiLinea 0001         __size_of_EPWM2_Initialize 0020  
        __size_of_TMR1_Initialize 0020          __size_of_CCP4_Initialize 001A  
          __end_of_ADC_Initialize 0C8E                       __pdataBANK0 0088  
                 _abbassaCarrello 0756                  abbassaCarrello@p 0061  
                     __pbssCOMRAM 0033                     __pcstackBANK0 0060  
        __size_of_TMR2_Initialize 0012                 __size_of_delay_mS 005A  
               __size_of_high_isr 0076       __end_of_EPWM2_LoadDutyValue 0B52  
                       _checkBatt 0CCC                          ?_InitApp 0001  
                       __pnvBANK0 008C                  ___lwdiv@dividend 0065  
          _PIN_MANAGER_Initialize 0B8E                         __pintcode 0008  
               __size_of_taratura 00C0                          ?___lwdiv 0065  
                 ?_ADC_Initialize 0001                       __pintcodelo 0018  
                ?_controllaColore 0001      __end_of_CCP4_SetCompareCount 0CB2  
             __size_of_seguiLinea 011A          __size_of_TMR1_StartTimer 0004  
        __size_of_sollevaCarrello 00C2                          ?_low_isr 0001  
                ___lwdiv@quotient 0069                     _V_pulsantiera 008C  
                  __size_of_stopM 003C                        ?_checkBatt 0001  
        __size_of_TMR2_StartTimer 0004                          i2u125_47 0938  
                        _PIR1bits 000F9E           __end_of_abbassaCarrello 0818  
                        _PIR4bits 000F7B      __size_of_EPWM1_LoadDutyValue 003C  
                __CFG_WDTPS$32768 000000                          _PSTR1CON 000FB9  
                        _PSTR2CON 000F63                 ??_TMR1_Initialize 0060  
                      _ADCON0bits 000FC2                 ??_CCP4_Initialize 0060  
                _EPWM1_Initialize 0C20                       _INTCON2bits 000FF1  
                       copy_data0 0A80                 ??_TMR2_Initialize 0060  
                __size_of_InitApp 001E                          __Hrparam 0000  
                _EPWM2_Initialize 0C00                          __Lrparam 0000  
               _ADC_GetConversion 0A9A                __CFG_BOREN$SBORDIS 000000  
               __CFG_P2BMX$PORTB5 000000  CCP4_SetCompareCount@compareCount 0020  
         ??_OSCILLATOR_Initialize 0060                ?_ADC_GetConversion 0060  
                __size_of___lwdiv 0078               ??_ADC_GetConversion 0062  
           abbassaCarrello@p_1028 0062                          _delay_mS 09FA  
                 ___lwdiv@divisor 0067                   ___lwdiv@counter 006B  
                __size_of_low_isr 008E                          __ptext10 0982  
                        __ptext11 0A9A                          __ptext20 0C00  
                        __ptext12 0756                          __ptext21 0C20  
                        __ptext13 0BBE                        _T1GCONbits 000FCC  
                        __ptext22 0C5E                          __ptext14 0C8E  
                        __ptext23 0C78                          __ptext15 0CC4  
                        __ptext24 0C40                          __ptext16 0BE0  
                        __ptext17 0CC8                          __ptext18 0B8E  
                        __ptext19 0CB2                          __ptext28 0CA0  
                        _high_isr 0008                 ??_TMR1_StartTimer 0060  
               ??_sollevaCarrello 0060                      _V_posteriore 0037  
                     ??_checkBatt 0060                      ??_seguiLinea 0065  
                   __size_of_main 03E8              _CCP4_SetCompareCount 0CA0  
                   __size_of_stop 0904         __end_of_ADC_GetConversion 0ADA  
                        _taratura 0818                  ?_abbassaCarrello 0001  
                        int$flags 003D                 ??_TMR2_StartTimer 0060  
                      _INTCONbits 000FF2                __end_of_seguiLinea 05AC  
                        intlevel1 0000                          intlevel2 0000  
    EPWM2_LoadDutyValue@dutyValue 0060             ?_CCP4_SetCompareCount 0020  
         ?_PIN_MANAGER_Initialize 0001                  ??_ADC_Initialize 0060  
               __CFG_T3CMX$PORTC0 000000               _EPWM1_LoadDutyValue 0B52  
  __end_of_PIN_MANAGER_Initialize 0BBE                 __CFG_FOSC$INTIO67 000000  
      __size_of_ADC_GetConversion 0040                   _TMR1_Initialize 0BE0  
        __end_of_EPWM1_Initialize 0C40              ?_EPWM1_LoadDutyValue 0060  
